; ModuleID = '/home/nrb74/ece5775/ECE5775_Final_Proj/matmult/1-mat_mult.prj/solution1/.autopilot/db/a.o.3.bc'
target datalayout = "e-p:64:64:64-i1:8:8-i8:8:8-i16:16:16-i32:32:32-i64:64:64-f32:32:32-f64:64:64-v64:64:64-v128:128:128-a0:0:64-s0:64:64-f80:128:128-n8:16:32:64-S128"
target triple = "x86_64-unknown-linux-gnu"

@matmult_str = internal unnamed_addr constant [8 x i8] c"matmult\00" ; [#uses=1 type=[8 x i8]*]
@llvm_global_ctors_1 = appending global [1 x void ()*] [void ()* @_GLOBAL__I_a] ; [#uses=0 type=[1 x void ()*]*]
@llvm_global_ctors_0 = appending global [1 x i32] [i32 65535] ; [#uses=0 type=[1 x i32]*]

; [#uses=0]
define void @matmult([10000 x i32]* %a_V, [10000 x i32]* %b_V, [10000 x i32]* %out_V) {
  call void (...)* @_ssdm_op_SpecBitsMap([10000 x i32]* %a_V), !map !35
  call void (...)* @_ssdm_op_SpecBitsMap([10000 x i32]* %b_V), !map !41
  call void (...)* @_ssdm_op_SpecBitsMap([10000 x i32]* %out_V), !map !45
  call void (...)* @_ssdm_op_SpecTopModule([8 x i8]* @matmult_str) nounwind
  call void @llvm.dbg.value(metadata !{[10000 x i32]* %a_V}, i64 0, metadata !49), !dbg !1308 ; [debug line = 15:22] [debug variable = a.V]
  call void @llvm.dbg.value(metadata !{[10000 x i32]* %b_V}, i64 0, metadata !1309), !dbg !1311 ; [debug line = 15:42] [debug variable = b.V]
  call void @llvm.dbg.value(metadata !{[10000 x i32]* %out_V}, i64 0, metadata !1312), !dbg !1314 ; [debug line = 15:63] [debug variable = out.V]
  br label %.loopexit, !dbg !1315                 ; [debug line = 16:18]

.loopexit:                                        ; preds = %.preheader22, %0
  %i = phi i7 [ 0, %0 ], [ %i_1, %.preheader22 ]  ; [#uses=2 type=i7]
  %phi_mul1 = phi i14 [ 0, %0 ], [ %next_mul2, %.preheader22 ] ; [#uses=3 type=i14]
  %next_mul2 = add i14 %phi_mul1, 100             ; [#uses=1 type=i14]
  %exitcond1 = icmp eq i7 %i, -28, !dbg !1315     ; [#uses=1 type=i1] [debug line = 16:18]
  %empty = call i32 (...)* @_ssdm_op_SpecLoopTripCount(i64 100, i64 100, i64 100) ; [#uses=0 type=i32]
  %i_1 = add i7 %i, 1, !dbg !1318                 ; [#uses=1 type=i7] [debug line = 16:29]
  call void @llvm.dbg.value(metadata !{i7 %i_1}, i64 0, metadata !1319), !dbg !1318 ; [debug line = 16:29] [debug variable = i]
  br i1 %exitcond1, label %2, label %.preheader22, !dbg !1315 ; [debug line = 16:18]

.preheader22:                                     ; preds = %.preheader, %.loopexit
  %j = phi i7 [ 0, %.loopexit ], [ %j_1, %.preheader ] ; [#uses=3 type=i7]
  %exitcond2 = icmp eq i7 %j, -28, !dbg !1320     ; [#uses=1 type=i1] [debug line = 17:23]
  %empty_2 = call i32 (...)* @_ssdm_op_SpecLoopTripCount(i64 100, i64 100, i64 100) ; [#uses=0 type=i32]
  %j_1 = add i7 %j, 1, !dbg !1323                 ; [#uses=1 type=i7] [debug line = 17:34]
  call void @llvm.dbg.value(metadata !{i7 %j_1}, i64 0, metadata !1324), !dbg !1323 ; [debug line = 17:34] [debug variable = j]
  br i1 %exitcond2, label %.loopexit, label %.preheader.preheader, !dbg !1320 ; [debug line = 17:23]

.preheader.preheader:                             ; preds = %.preheader22
  %tmp_2_cast = zext i7 %j to i14, !dbg !1325     ; [#uses=2 type=i14] [debug line = 1822:147@19:30]
  %tmp_3 = add i14 %phi_mul1, %tmp_2_cast, !dbg !1325 ; [#uses=1 type=i14] [debug line = 1822:147@19:30]
  %tmp_3_cast = zext i14 %tmp_3 to i64, !dbg !1325 ; [#uses=1 type=i64] [debug line = 1822:147@19:30]
  %out_V_addr = getelementptr [10000 x i32]* %out_V, i64 0, i64 %tmp_3_cast, !dbg !1325 ; [#uses=2 type=i32*] [debug line = 1822:147@19:30]
  br label %.preheader, !dbg !1332                ; [debug line = 18:27]

.preheader:                                       ; preds = %1, %.preheader.preheader
  %k = phi i7 [ %k_1, %1 ], [ 0, %.preheader.preheader ] ; [#uses=3 type=i7]
  %phi_mul = phi i14 [ %next_mul, %1 ], [ 0, %.preheader.preheader ] ; [#uses=2 type=i14]
  %exitcond = icmp eq i7 %k, -28, !dbg !1332      ; [#uses=1 type=i1] [debug line = 18:27]
  %empty_3 = call i32 (...)* @_ssdm_op_SpecLoopTripCount(i64 100, i64 100, i64 100) ; [#uses=0 type=i32]
  %k_1 = add i7 %k, 1, !dbg !1333                 ; [#uses=1 type=i7] [debug line = 18:38]
  br i1 %exitcond, label %.preheader22, label %1, !dbg !1332 ; [debug line = 18:27]

; <label>:1                                       ; preds = %.preheader
  %tmp_4_cast = zext i7 %k to i14, !dbg !1334     ; [#uses=1 type=i14] [debug line = 1450:95@1450:111@3365:0@19:30]
  %tmp_6 = add i14 %phi_mul1, %tmp_4_cast, !dbg !1334 ; [#uses=1 type=i14] [debug line = 1450:95@1450:111@3365:0@19:30]
  %tmp_6_cast = zext i14 %tmp_6 to i64, !dbg !1334 ; [#uses=1 type=i64] [debug line = 1450:95@1450:111@3365:0@19:30]
  %a_V_addr = getelementptr [10000 x i32]* %a_V, i64 0, i64 %tmp_6_cast, !dbg !1334 ; [#uses=1 type=i32*] [debug line = 1450:95@1450:111@3365:0@19:30]
  %next_mul = add i14 %phi_mul, 100               ; [#uses=1 type=i14]
  %tmp_8 = add i14 %phi_mul, %tmp_2_cast, !dbg !1334 ; [#uses=1 type=i14] [debug line = 1450:95@1450:111@3365:0@19:30]
  %tmp_8_cast = zext i14 %tmp_8 to i64, !dbg !1334 ; [#uses=1 type=i64] [debug line = 1450:95@1450:111@3365:0@19:30]
  %b_V_addr = getelementptr [10000 x i32]* %b_V, i64 0, i64 %tmp_8_cast, !dbg !1334 ; [#uses=1 type=i32*] [debug line = 1450:95@1450:111@3365:0@19:30]
  %a_V_load = load i32* %a_V_addr, align 4, !dbg !1334 ; [#uses=1 type=i32] [debug line = 1450:95@1450:111@3365:0@19:30]
  %b_V_load = load i32* %b_V_addr, align 4, !dbg !1334 ; [#uses=1 type=i32] [debug line = 1450:95@1450:111@3365:0@19:30]
  %p_s = mul i32 %b_V_load, %a_V_load, !dbg !1325 ; [#uses=1 type=i32] [debug line = 1822:147@19:30]
  %out_V_load = load i32* %out_V_addr, align 4, !dbg !1325 ; [#uses=1 type=i32] [debug line = 1822:147@19:30]
  %tmp_5 = add i32 %p_s, %out_V_load, !dbg !1325  ; [#uses=1 type=i32] [debug line = 1822:147@19:30]
  store i32 %tmp_5, i32* %out_V_addr, align 4, !dbg !1325 ; [debug line = 1822:147@19:30]
  call void @llvm.dbg.value(metadata !{i7 %k_1}, i64 0, metadata !1351), !dbg !1333 ; [debug line = 18:38] [debug variable = k]
  br label %.preheader, !dbg !1333                ; [debug line = 18:38]

; <label>:2                                       ; preds = %.loopexit
  ret void, !dbg !1352                            ; [debug line = 23:1]
}

; [#uses=6]
declare void @llvm.dbg.value(metadata, i64, metadata) nounwind readnone

; [#uses=1]
define weak void @_ssdm_op_SpecTopModule(...) {
entry:
  ret void
}

; [#uses=3]
define weak i32 @_ssdm_op_SpecLoopTripCount(...) {
entry:
  ret i32 0
}

; [#uses=3]
define weak void @_ssdm_op_SpecBitsMap(...) {
entry:
  ret void
}

; [#uses=1]
declare void @_GLOBAL__I_a() nounwind section ".text.startup"

!opencl.kernels = !{!0, !7, !13, !19, !19, !19, !25, !25}
!hls.encrypted.func = !{}
!llvm.map.gv = !{!28}

!0 = metadata !{null, metadata !1, metadata !2, metadata !3, metadata !4, metadata !5, metadata !6}
!1 = metadata !{metadata !"kernel_arg_addr_space", i32 1, i32 1, i32 1}
!2 = metadata !{metadata !"kernel_arg_access_qual", metadata !"none", metadata !"none", metadata !"none"}
!3 = metadata !{metadata !"kernel_arg_type", metadata !"bit32_t [100]*", metadata !"bit32_t [100]*", metadata !"bit32_t [100]*"}
!4 = metadata !{metadata !"kernel_arg_type_qual", metadata !"", metadata !"", metadata !""}
!5 = metadata !{metadata !"kernel_arg_name", metadata !"a", metadata !"b", metadata !"out"}
!6 = metadata !{metadata !"reqd_work_group_size", i32 1, i32 1, i32 1}
!7 = metadata !{null, metadata !8, metadata !9, metadata !10, metadata !11, metadata !12, metadata !6}
!8 = metadata !{metadata !"kernel_arg_addr_space", i32 0}
!9 = metadata !{metadata !"kernel_arg_access_qual", metadata !"none"}
!10 = metadata !{metadata !"kernel_arg_type", metadata !"const ap_int_base<64, false> &"}
!11 = metadata !{metadata !"kernel_arg_type_qual", metadata !""}
!12 = metadata !{metadata !"kernel_arg_name", metadata !"op2"}
!13 = metadata !{null, metadata !14, metadata !15, metadata !16, metadata !17, metadata !18, metadata !6}
!14 = metadata !{metadata !"kernel_arg_addr_space", i32 0, i32 0}
!15 = metadata !{metadata !"kernel_arg_access_qual", metadata !"none", metadata !"none"}
!16 = metadata !{metadata !"kernel_arg_type", metadata !"const ap_int_base<32, false> &", metadata !"const ap_int_base<32, false> &"}
!17 = metadata !{metadata !"kernel_arg_type_qual", metadata !"", metadata !""}
!18 = metadata !{metadata !"kernel_arg_name", metadata !"op", metadata !"op2"}
!19 = metadata !{null, metadata !20, metadata !21, metadata !22, metadata !23, metadata !24, metadata !6}
!20 = metadata !{metadata !"kernel_arg_addr_space"}
!21 = metadata !{metadata !"kernel_arg_access_qual"}
!22 = metadata !{metadata !"kernel_arg_type"}
!23 = metadata !{metadata !"kernel_arg_type_qual"}
!24 = metadata !{metadata !"kernel_arg_name"}
!25 = metadata !{null, metadata !8, metadata !9, metadata !26, metadata !11, metadata !27, metadata !6}
!26 = metadata !{metadata !"kernel_arg_type", metadata !"const ap_int_base<32, false> &"}
!27 = metadata !{metadata !"kernel_arg_name", metadata !"op"}
!28 = metadata !{metadata !29, [1 x i32]* @llvm_global_ctors_0}
!29 = metadata !{metadata !30}
!30 = metadata !{i32 0, i32 31, metadata !31}
!31 = metadata !{metadata !32}
!32 = metadata !{metadata !"llvm.global_ctors.0", metadata !33, metadata !"", i32 0, i32 31}
!33 = metadata !{metadata !34}
!34 = metadata !{i32 0, i32 0, i32 1}
!35 = metadata !{metadata !36}
!36 = metadata !{i32 0, i32 31, metadata !37}
!37 = metadata !{metadata !38}
!38 = metadata !{metadata !"a.V", metadata !39, metadata !"uint32", i32 0, i32 31}
!39 = metadata !{metadata !40, metadata !40}
!40 = metadata !{i32 0, i32 99, i32 1}
!41 = metadata !{metadata !42}
!42 = metadata !{i32 0, i32 31, metadata !43}
!43 = metadata !{metadata !44}
!44 = metadata !{metadata !"b.V", metadata !39, metadata !"uint32", i32 0, i32 31}
!45 = metadata !{metadata !46}
!46 = metadata !{i32 0, i32 31, metadata !47}
!47 = metadata !{metadata !48}
!48 = metadata !{metadata !"out.V", metadata !39, metadata !"uint32", i32 0, i32 31}
!49 = metadata !{i32 790531, metadata !50, metadata !"a.V", null, i32 15, metadata !1300, i32 0, i32 0} ; [ DW_TAG_arg_variable_field ]
!50 = metadata !{i32 786689, metadata !51, metadata !"a", metadata !52, i32 16777231, metadata !55, i32 0, i32 0} ; [ DW_TAG_arg_variable ]
!51 = metadata !{i32 786478, i32 0, metadata !52, metadata !"matmult", metadata !"matmult", metadata !"_Z7matmultPA100_7ap_uintILi32EES2_S2_", metadata !52, i32 15, metadata !53, i1 false, i1 true, i32 0, i32 0, null, i32 256, i1 false, null, null, null, metadata !75, i32 15} ; [ DW_TAG_subprogram ]
!52 = metadata !{i32 786473, metadata !"matmult.cpp", metadata !"/home/nrb74/ece5775/ECE5775_Final_Proj/matmult", null} ; [ DW_TAG_file_type ]
!53 = metadata !{i32 786453, i32 0, metadata !"", i32 0, i32 0, i64 0, i64 0, i64 0, i32 0, null, metadata !54, i32 0, i32 0} ; [ DW_TAG_subroutine_type ]
!54 = metadata !{null, metadata !55, metadata !55, metadata !55}
!55 = metadata !{i32 786447, null, metadata !"", null, i32 0, i64 64, i64 64, i64 0, i32 0, metadata !56} ; [ DW_TAG_pointer_type ]
!56 = metadata !{i32 786433, null, metadata !"", null, i32 0, i64 3200, i64 32, i32 0, i32 0, metadata !57, metadata !1298, i32 0, i32 0} ; [ DW_TAG_array_type ]
!57 = metadata !{i32 786454, null, metadata !"bit32_t", metadata !52, i32 14, i64 0, i64 0, i64 0, i32 0, metadata !58} ; [ DW_TAG_typedef ]
!58 = metadata !{i32 786434, null, metadata !"ap_uint<32>", metadata !59, i32 180, i64 32, i64 32, i32 0, i32 0, null, metadata !60, i32 0, null, metadata !1297} ; [ DW_TAG_class_type ]
!59 = metadata !{i32 786473, metadata !"/opt/xilinx/xilinx_2016.2/Vivado_HLS/2016.2/common/technology/autopilot/ap_int.h", metadata !"/home/nrb74/ece5775/ECE5775_Final_Proj/matmult", null} ; [ DW_TAG_file_type ]
!60 = metadata !{metadata !61, metadata !1229, metadata !1233, metadata !1236, metadata !1239, metadata !1242, metadata !1245, metadata !1248, metadata !1251, metadata !1254, metadata !1257, metadata !1260, metadata !1263, metadata !1266, metadata !1269, metadata !1272, metadata !1275, metadata !1278, metadata !1285, metadata !1290, metadata !1294}
!61 = metadata !{i32 786460, metadata !58, null, metadata !59, i32 0, i64 0, i64 0, i64 0, i32 0, metadata !62} ; [ DW_TAG_inheritance ]
!62 = metadata !{i32 786434, null, metadata !"ap_int_base<32, false, true>", metadata !63, i32 1397, i64 32, i64 32, i32 0, i32 0, null, metadata !64, i32 0, null, metadata !1228} ; [ DW_TAG_class_type ]
!63 = metadata !{i32 786473, metadata !"/opt/xilinx/xilinx_2016.2/Vivado_HLS/2016.2/common/technology/autopilot/ap_int_syn.h", metadata !"/home/nrb74/ece5775/ECE5775_Final_Proj/matmult", null} ; [ DW_TAG_file_type ]
!64 = metadata !{metadata !65, metadata !82, metadata !86, metadata !89, metadata !93, metadata !97, metadata !101, metadata !105, metadata !108, metadata !112, metadata !116, metadata !120, metadata !125, metadata !130, metadata !134, metadata !138, metadata !144, metadata !147, metadata !152, metadata !157, metadata !162, metadata !163, metadata !167, metadata !170, metadata !173, metadata !176, metadata !179, metadata !182, metadata !185, metadata !188, metadata !191, metadata !194, metadata !197, metadata !200, metadata !210, metadata !213, metadata !216, metadata !219, metadata !222, metadata !225, metadata !228, metadata !231, metadata !234, metadata !237, metadata !240, metadata !243, metadata !246, metadata !247, metadata !251, metadata !254, metadata !255, metadata !256, metadata !257, metadata !258, metadata !259, metadata !262, metadata !263, metadata !266, metadata !267, metadata !268, metadata !269, metadata !270, metadata !271, metadata !274, metadata !832, metadata !833, metadata !834, metadata !837, metadata !838, metadata !841, metadata !842, metadata !1131, metadata !1193, metadata !1194, metadata !1197, metadata !1198, metadata !1202, metadata !1203, metadata !1204, metadata !1205, metadata !1208, metadata !1209, metadata !1210, metadata !1211, metadata !1212, metadata !1213, metadata !1214, metadata !1215, metadata !1216, metadata !1217, metadata !1218, metadata !1219, metadata !1222, metadata !1225}
!65 = metadata !{i32 786460, metadata !62, null, metadata !63, i32 0, i64 0, i64 0, i64 0, i32 0, metadata !66} ; [ DW_TAG_inheritance ]
!66 = metadata !{i32 786434, null, metadata !"ssdm_int<32 + 1024 * 0, false>", metadata !67, i32 34, i64 32, i64 32, i32 0, i32 0, null, metadata !68, i32 0, null, metadata !77} ; [ DW_TAG_class_type ]
!67 = metadata !{i32 786473, metadata !"/opt/xilinx/xilinx_2016.2/Vivado_HLS/2016.2/common/technology/autopilot/etc/autopilot_dt.def", metadata !"/home/nrb74/ece5775/ECE5775_Final_Proj/matmult", null} ; [ DW_TAG_file_type ]
!68 = metadata !{metadata !69, metadata !71}
!69 = metadata !{i32 786445, metadata !66, metadata !"V", metadata !67, i32 34, i64 32, i64 32, i64 0, i32 0, metadata !70} ; [ DW_TAG_member ]
!70 = metadata !{i32 786468, null, metadata !"uint32", null, i32 0, i64 32, i64 32, i64 0, i32 0, i32 7} ; [ DW_TAG_base_type ]
!71 = metadata !{i32 786478, i32 0, metadata !66, metadata !"ssdm_int", metadata !"ssdm_int", metadata !"", metadata !67, i32 34, metadata !72, i1 false, i1 false, i32 0, i32 0, null, i32 256, i1 false, null, null, i32 0, metadata !75, i32 34} ; [ DW_TAG_subprogram ]
!72 = metadata !{i32 786453, i32 0, metadata !"", i32 0, i32 0, i64 0, i64 0, i64 0, i32 0, null, metadata !73, i32 0, i32 0} ; [ DW_TAG_subroutine_type ]
!73 = metadata !{null, metadata !74}
!74 = metadata !{i32 786447, i32 0, metadata !"", i32 0, i32 0, i64 64, i64 64, i64 0, i32 64, metadata !66} ; [ DW_TAG_pointer_type ]
!75 = metadata !{metadata !76}
!76 = metadata !{i32 786468}                      ; [ DW_TAG_base_type ]
!77 = metadata !{metadata !78, metadata !80}
!78 = metadata !{i32 786480, null, metadata !"_AP_N", metadata !79, i64 32, null, i32 0, i32 0} ; [ DW_TAG_template_value_parameter ]
!79 = metadata !{i32 786468, null, metadata !"int", null, i32 0, i64 32, i64 32, i64 0, i32 0, i32 5} ; [ DW_TAG_base_type ]
!80 = metadata !{i32 786480, null, metadata !"_AP_S", metadata !81, i64 0, null, i32 0, i32 0} ; [ DW_TAG_template_value_parameter ]
!81 = metadata !{i32 786468, null, metadata !"bool", null, i32 0, i64 8, i64 8, i64 0, i32 0, i32 2} ; [ DW_TAG_base_type ]
!82 = metadata !{i32 786478, i32 0, metadata !62, metadata !"ap_int_base", metadata !"ap_int_base", metadata !"", metadata !63, i32 1438, metadata !83, i1 false, i1 false, i32 0, i32 0, null, i32 256, i1 false, null, null, i32 0, metadata !75, i32 1438} ; [ DW_TAG_subprogram ]
!83 = metadata !{i32 786453, i32 0, metadata !"", i32 0, i32 0, i64 0, i64 0, i64 0, i32 0, null, metadata !84, i32 0, i32 0} ; [ DW_TAG_subroutine_type ]
!84 = metadata !{null, metadata !85}
!85 = metadata !{i32 786447, i32 0, metadata !"", i32 0, i32 0, i64 64, i64 64, i64 0, i32 64, metadata !62} ; [ DW_TAG_pointer_type ]
!86 = metadata !{i32 786478, i32 0, metadata !62, metadata !"ap_int_base", metadata !"ap_int_base", metadata !"", metadata !63, i32 1460, metadata !87, i1 false, i1 false, i32 0, i32 0, null, i32 384, i1 false, null, null, i32 0, metadata !75, i32 1460} ; [ DW_TAG_subprogram ]
!87 = metadata !{i32 786453, i32 0, metadata !"", i32 0, i32 0, i64 0, i64 0, i64 0, i32 0, null, metadata !88, i32 0, i32 0} ; [ DW_TAG_subroutine_type ]
!88 = metadata !{null, metadata !85, metadata !81}
!89 = metadata !{i32 786478, i32 0, metadata !62, metadata !"ap_int_base", metadata !"ap_int_base", metadata !"", metadata !63, i32 1461, metadata !90, i1 false, i1 false, i32 0, i32 0, null, i32 384, i1 false, null, null, i32 0, metadata !75, i32 1461} ; [ DW_TAG_subprogram ]
!90 = metadata !{i32 786453, i32 0, metadata !"", i32 0, i32 0, i64 0, i64 0, i64 0, i32 0, null, metadata !91, i32 0, i32 0} ; [ DW_TAG_subroutine_type ]
!91 = metadata !{null, metadata !85, metadata !92}
!92 = metadata !{i32 786468, null, metadata !"signed char", null, i32 0, i64 8, i64 8, i64 0, i32 0, i32 6} ; [ DW_TAG_base_type ]
!93 = metadata !{i32 786478, i32 0, metadata !62, metadata !"ap_int_base", metadata !"ap_int_base", metadata !"", metadata !63, i32 1462, metadata !94, i1 false, i1 false, i32 0, i32 0, null, i32 384, i1 false, null, null, i32 0, metadata !75, i32 1462} ; [ DW_TAG_subprogram ]
!94 = metadata !{i32 786453, i32 0, metadata !"", i32 0, i32 0, i64 0, i64 0, i64 0, i32 0, null, metadata !95, i32 0, i32 0} ; [ DW_TAG_subroutine_type ]
!95 = metadata !{null, metadata !85, metadata !96}
!96 = metadata !{i32 786468, null, metadata !"unsigned char", null, i32 0, i64 8, i64 8, i64 0, i32 0, i32 8} ; [ DW_TAG_base_type ]
!97 = metadata !{i32 786478, i32 0, metadata !62, metadata !"ap_int_base", metadata !"ap_int_base", metadata !"", metadata !63, i32 1463, metadata !98, i1 false, i1 false, i32 0, i32 0, null, i32 384, i1 false, null, null, i32 0, metadata !75, i32 1463} ; [ DW_TAG_subprogram ]
!98 = metadata !{i32 786453, i32 0, metadata !"", i32 0, i32 0, i64 0, i64 0, i64 0, i32 0, null, metadata !99, i32 0, i32 0} ; [ DW_TAG_subroutine_type ]
!99 = metadata !{null, metadata !85, metadata !100}
!100 = metadata !{i32 786468, null, metadata !"short", null, i32 0, i64 16, i64 16, i64 0, i32 0, i32 5} ; [ DW_TAG_base_type ]
!101 = metadata !{i32 786478, i32 0, metadata !62, metadata !"ap_int_base", metadata !"ap_int_base", metadata !"", metadata !63, i32 1464, metadata !102, i1 false, i1 false, i32 0, i32 0, null, i32 384, i1 false, null, null, i32 0, metadata !75, i32 1464} ; [ DW_TAG_subprogram ]
!102 = metadata !{i32 786453, i32 0, metadata !"", i32 0, i32 0, i64 0, i64 0, i64 0, i32 0, null, metadata !103, i32 0, i32 0} ; [ DW_TAG_subroutine_type ]
!103 = metadata !{null, metadata !85, metadata !104}
!104 = metadata !{i32 786468, null, metadata !"unsigned short", null, i32 0, i64 16, i64 16, i64 0, i32 0, i32 7} ; [ DW_TAG_base_type ]
!105 = metadata !{i32 786478, i32 0, metadata !62, metadata !"ap_int_base", metadata !"ap_int_base", metadata !"", metadata !63, i32 1465, metadata !106, i1 false, i1 false, i32 0, i32 0, null, i32 384, i1 false, null, null, i32 0, metadata !75, i32 1465} ; [ DW_TAG_subprogram ]
!106 = metadata !{i32 786453, i32 0, metadata !"", i32 0, i32 0, i64 0, i64 0, i64 0, i32 0, null, metadata !107, i32 0, i32 0} ; [ DW_TAG_subroutine_type ]
!107 = metadata !{null, metadata !85, metadata !79}
!108 = metadata !{i32 786478, i32 0, metadata !62, metadata !"ap_int_base", metadata !"ap_int_base", metadata !"", metadata !63, i32 1466, metadata !109, i1 false, i1 false, i32 0, i32 0, null, i32 384, i1 false, null, null, i32 0, metadata !75, i32 1466} ; [ DW_TAG_subprogram ]
!109 = metadata !{i32 786453, i32 0, metadata !"", i32 0, i32 0, i64 0, i64 0, i64 0, i32 0, null, metadata !110, i32 0, i32 0} ; [ DW_TAG_subroutine_type ]
!110 = metadata !{null, metadata !85, metadata !111}
!111 = metadata !{i32 786468, null, metadata !"unsigned int", null, i32 0, i64 32, i64 32, i64 0, i32 0, i32 7} ; [ DW_TAG_base_type ]
!112 = metadata !{i32 786478, i32 0, metadata !62, metadata !"ap_int_base", metadata !"ap_int_base", metadata !"", metadata !63, i32 1467, metadata !113, i1 false, i1 false, i32 0, i32 0, null, i32 384, i1 false, null, null, i32 0, metadata !75, i32 1467} ; [ DW_TAG_subprogram ]
!113 = metadata !{i32 786453, i32 0, metadata !"", i32 0, i32 0, i64 0, i64 0, i64 0, i32 0, null, metadata !114, i32 0, i32 0} ; [ DW_TAG_subroutine_type ]
!114 = metadata !{null, metadata !85, metadata !115}
!115 = metadata !{i32 786468, null, metadata !"long int", null, i32 0, i64 64, i64 64, i64 0, i32 0, i32 5} ; [ DW_TAG_base_type ]
!116 = metadata !{i32 786478, i32 0, metadata !62, metadata !"ap_int_base", metadata !"ap_int_base", metadata !"", metadata !63, i32 1468, metadata !117, i1 false, i1 false, i32 0, i32 0, null, i32 384, i1 false, null, null, i32 0, metadata !75, i32 1468} ; [ DW_TAG_subprogram ]
!117 = metadata !{i32 786453, i32 0, metadata !"", i32 0, i32 0, i64 0, i64 0, i64 0, i32 0, null, metadata !118, i32 0, i32 0} ; [ DW_TAG_subroutine_type ]
!118 = metadata !{null, metadata !85, metadata !119}
!119 = metadata !{i32 786468, null, metadata !"long unsigned int", null, i32 0, i64 64, i64 64, i64 0, i32 0, i32 7} ; [ DW_TAG_base_type ]
!120 = metadata !{i32 786478, i32 0, metadata !62, metadata !"ap_int_base", metadata !"ap_int_base", metadata !"", metadata !63, i32 1469, metadata !121, i1 false, i1 false, i32 0, i32 0, null, i32 384, i1 false, null, null, i32 0, metadata !75, i32 1469} ; [ DW_TAG_subprogram ]
!121 = metadata !{i32 786453, i32 0, metadata !"", i32 0, i32 0, i64 0, i64 0, i64 0, i32 0, null, metadata !122, i32 0, i32 0} ; [ DW_TAG_subroutine_type ]
!122 = metadata !{null, metadata !85, metadata !123}
!123 = metadata !{i32 786454, null, metadata !"ap_slong", metadata !63, i32 111, i64 0, i64 0, i64 0, i32 0, metadata !124} ; [ DW_TAG_typedef ]
!124 = metadata !{i32 786468, null, metadata !"long long int", null, i32 0, i64 64, i64 64, i64 0, i32 0, i32 5} ; [ DW_TAG_base_type ]
!125 = metadata !{i32 786478, i32 0, metadata !62, metadata !"ap_int_base", metadata !"ap_int_base", metadata !"", metadata !63, i32 1470, metadata !126, i1 false, i1 false, i32 0, i32 0, null, i32 384, i1 false, null, null, i32 0, metadata !75, i32 1470} ; [ DW_TAG_subprogram ]
!126 = metadata !{i32 786453, i32 0, metadata !"", i32 0, i32 0, i64 0, i64 0, i64 0, i32 0, null, metadata !127, i32 0, i32 0} ; [ DW_TAG_subroutine_type ]
!127 = metadata !{null, metadata !85, metadata !128}
!128 = metadata !{i32 786454, null, metadata !"ap_ulong", metadata !63, i32 110, i64 0, i64 0, i64 0, i32 0, metadata !129} ; [ DW_TAG_typedef ]
!129 = metadata !{i32 786468, null, metadata !"long long unsigned int", null, i32 0, i64 64, i64 64, i64 0, i32 0, i32 7} ; [ DW_TAG_base_type ]
!130 = metadata !{i32 786478, i32 0, metadata !62, metadata !"ap_int_base", metadata !"ap_int_base", metadata !"", metadata !63, i32 1471, metadata !131, i1 false, i1 false, i32 0, i32 0, null, i32 384, i1 false, null, null, i32 0, metadata !75, i32 1471} ; [ DW_TAG_subprogram ]
!131 = metadata !{i32 786453, i32 0, metadata !"", i32 0, i32 0, i64 0, i64 0, i64 0, i32 0, null, metadata !132, i32 0, i32 0} ; [ DW_TAG_subroutine_type ]
!132 = metadata !{null, metadata !85, metadata !133}
!133 = metadata !{i32 786468, null, metadata !"float", null, i32 0, i64 32, i64 32, i64 0, i32 0, i32 4} ; [ DW_TAG_base_type ]
!134 = metadata !{i32 786478, i32 0, metadata !62, metadata !"ap_int_base", metadata !"ap_int_base", metadata !"", metadata !63, i32 1472, metadata !135, i1 false, i1 false, i32 0, i32 0, null, i32 384, i1 false, null, null, i32 0, metadata !75, i32 1472} ; [ DW_TAG_subprogram ]
!135 = metadata !{i32 786453, i32 0, metadata !"", i32 0, i32 0, i64 0, i64 0, i64 0, i32 0, null, metadata !136, i32 0, i32 0} ; [ DW_TAG_subroutine_type ]
!136 = metadata !{null, metadata !85, metadata !137}
!137 = metadata !{i32 786468, null, metadata !"double", null, i32 0, i64 64, i64 64, i64 0, i32 0, i32 4} ; [ DW_TAG_base_type ]
!138 = metadata !{i32 786478, i32 0, metadata !62, metadata !"ap_int_base", metadata !"ap_int_base", metadata !"", metadata !63, i32 1499, metadata !139, i1 false, i1 false, i32 0, i32 0, null, i32 256, i1 false, null, null, i32 0, metadata !75, i32 1499} ; [ DW_TAG_subprogram ]
!139 = metadata !{i32 786453, i32 0, metadata !"", i32 0, i32 0, i64 0, i64 0, i64 0, i32 0, null, metadata !140, i32 0, i32 0} ; [ DW_TAG_subroutine_type ]
!140 = metadata !{null, metadata !85, metadata !141}
!141 = metadata !{i32 786447, null, metadata !"", null, i32 0, i64 64, i64 64, i64 0, i32 0, metadata !142} ; [ DW_TAG_pointer_type ]
!142 = metadata !{i32 786470, null, metadata !"", null, i32 0, i64 0, i64 0, i64 0, i32 0, metadata !143} ; [ DW_TAG_const_type ]
!143 = metadata !{i32 786468, null, metadata !"char", null, i32 0, i64 8, i64 8, i64 0, i32 0, i32 6} ; [ DW_TAG_base_type ]
!144 = metadata !{i32 786478, i32 0, metadata !62, metadata !"ap_int_base", metadata !"ap_int_base", metadata !"", metadata !63, i32 1506, metadata !145, i1 false, i1 false, i32 0, i32 0, null, i32 256, i1 false, null, null, i32 0, metadata !75, i32 1506} ; [ DW_TAG_subprogram ]
!145 = metadata !{i32 786453, i32 0, metadata !"", i32 0, i32 0, i64 0, i64 0, i64 0, i32 0, null, metadata !146, i32 0, i32 0} ; [ DW_TAG_subroutine_type ]
!146 = metadata !{null, metadata !85, metadata !141, metadata !92}
!147 = metadata !{i32 786478, i32 0, metadata !62, metadata !"read", metadata !"read", metadata !"_ZNV11ap_int_baseILi32ELb0ELb1EE4readEv", metadata !63, i32 1527, metadata !148, i1 false, i1 false, i32 0, i32 0, null, i32 256, i1 false, null, null, i32 0, metadata !75, i32 1527} ; [ DW_TAG_subprogram ]
!148 = metadata !{i32 786453, i32 0, metadata !"", i32 0, i32 0, i64 0, i64 0, i64 0, i32 0, null, metadata !149, i32 0, i32 0} ; [ DW_TAG_subroutine_type ]
!149 = metadata !{metadata !62, metadata !150}
!150 = metadata !{i32 786447, i32 0, metadata !"", i32 0, i32 0, i64 64, i64 64, i64 0, i32 64, metadata !151} ; [ DW_TAG_pointer_type ]
!151 = metadata !{i32 786485, null, metadata !"", null, i32 0, i64 0, i64 0, i64 0, i32 0, metadata !62} ; [ DW_TAG_volatile_type ]
!152 = metadata !{i32 786478, i32 0, metadata !62, metadata !"write", metadata !"write", metadata !"_ZNV11ap_int_baseILi32ELb0ELb1EE5writeERKS0_", metadata !63, i32 1533, metadata !153, i1 false, i1 false, i32 0, i32 0, null, i32 256, i1 false, null, null, i32 0, metadata !75, i32 1533} ; [ DW_TAG_subprogram ]
!153 = metadata !{i32 786453, i32 0, metadata !"", i32 0, i32 0, i64 0, i64 0, i64 0, i32 0, null, metadata !154, i32 0, i32 0} ; [ DW_TAG_subroutine_type ]
!154 = metadata !{null, metadata !150, metadata !155}
!155 = metadata !{i32 786448, null, null, null, i32 0, i64 0, i64 0, i64 0, i32 0, metadata !156} ; [ DW_TAG_reference_type ]
!156 = metadata !{i32 786470, null, metadata !"", null, i32 0, i64 0, i64 0, i64 0, i32 0, metadata !62} ; [ DW_TAG_const_type ]
!157 = metadata !{i32 786478, i32 0, metadata !62, metadata !"operator=", metadata !"operator=", metadata !"_ZNV11ap_int_baseILi32ELb0ELb1EEaSERVKS0_", metadata !63, i32 1545, metadata !158, i1 false, i1 false, i32 0, i32 0, null, i32 256, i1 false, null, null, i32 0, metadata !75, i32 1545} ; [ DW_TAG_subprogram ]
!158 = metadata !{i32 786453, i32 0, metadata !"", i32 0, i32 0, i64 0, i64 0, i64 0, i32 0, null, metadata !159, i32 0, i32 0} ; [ DW_TAG_subroutine_type ]
!159 = metadata !{null, metadata !150, metadata !160}
!160 = metadata !{i32 786448, null, null, null, i32 0, i64 0, i64 0, i64 0, i32 0, metadata !161} ; [ DW_TAG_reference_type ]
!161 = metadata !{i32 786470, null, metadata !"", null, i32 0, i64 0, i64 0, i64 0, i32 0, metadata !151} ; [ DW_TAG_const_type ]
!162 = metadata !{i32 786478, i32 0, metadata !62, metadata !"operator=", metadata !"operator=", metadata !"_ZNV11ap_int_baseILi32ELb0ELb1EEaSERKS0_", metadata !63, i32 1554, metadata !153, i1 false, i1 false, i32 0, i32 0, null, i32 256, i1 false, null, null, i32 0, metadata !75, i32 1554} ; [ DW_TAG_subprogram ]
!163 = metadata !{i32 786478, i32 0, metadata !62, metadata !"operator=", metadata !"operator=", metadata !"_ZN11ap_int_baseILi32ELb0ELb1EEaSERVKS0_", metadata !63, i32 1577, metadata !164, i1 false, i1 false, i32 0, i32 0, null, i32 256, i1 false, null, null, i32 0, metadata !75, i32 1577} ; [ DW_TAG_subprogram ]
!164 = metadata !{i32 786453, i32 0, metadata !"", i32 0, i32 0, i64 0, i64 0, i64 0, i32 0, null, metadata !165, i32 0, i32 0} ; [ DW_TAG_subroutine_type ]
!165 = metadata !{metadata !166, metadata !85, metadata !160}
!166 = metadata !{i32 786448, null, null, null, i32 0, i64 0, i64 0, i64 0, i32 0, metadata !62} ; [ DW_TAG_reference_type ]
!167 = metadata !{i32 786478, i32 0, metadata !62, metadata !"operator=", metadata !"operator=", metadata !"_ZN11ap_int_baseILi32ELb0ELb1EEaSERKS0_", metadata !63, i32 1582, metadata !168, i1 false, i1 false, i32 0, i32 0, null, i32 256, i1 false, null, null, i32 0, metadata !75, i32 1582} ; [ DW_TAG_subprogram ]
!168 = metadata !{i32 786453, i32 0, metadata !"", i32 0, i32 0, i64 0, i64 0, i64 0, i32 0, null, metadata !169, i32 0, i32 0} ; [ DW_TAG_subroutine_type ]
!169 = metadata !{metadata !166, metadata !85, metadata !155}
!170 = metadata !{i32 786478, i32 0, metadata !62, metadata !"operator=", metadata !"operator=", metadata !"_ZN11ap_int_baseILi32ELb0ELb1EEaSEPKc", metadata !63, i32 1586, metadata !171, i1 false, i1 false, i32 0, i32 0, null, i32 256, i1 false, null, null, i32 0, metadata !75, i32 1586} ; [ DW_TAG_subprogram ]
!171 = metadata !{i32 786453, i32 0, metadata !"", i32 0, i32 0, i64 0, i64 0, i64 0, i32 0, null, metadata !172, i32 0, i32 0} ; [ DW_TAG_subroutine_type ]
!172 = metadata !{metadata !166, metadata !85, metadata !141}
!173 = metadata !{i32 786478, i32 0, metadata !62, metadata !"set", metadata !"set", metadata !"_ZN11ap_int_baseILi32ELb0ELb1EE3setEPKca", metadata !63, i32 1594, metadata !174, i1 false, i1 false, i32 0, i32 0, null, i32 256, i1 false, null, null, i32 0, metadata !75, i32 1594} ; [ DW_TAG_subprogram ]
!174 = metadata !{i32 786453, i32 0, metadata !"", i32 0, i32 0, i64 0, i64 0, i64 0, i32 0, null, metadata !175, i32 0, i32 0} ; [ DW_TAG_subroutine_type ]
!175 = metadata !{metadata !166, metadata !85, metadata !141, metadata !92}
!176 = metadata !{i32 786478, i32 0, metadata !62, metadata !"operator=", metadata !"operator=", metadata !"_ZN11ap_int_baseILi32ELb0ELb1EEaSEa", metadata !63, i32 1608, metadata !177, i1 false, i1 false, i32 0, i32 0, null, i32 256, i1 false, null, null, i32 0, metadata !75, i32 1608} ; [ DW_TAG_subprogram ]
!177 = metadata !{i32 786453, i32 0, metadata !"", i32 0, i32 0, i64 0, i64 0, i64 0, i32 0, null, metadata !178, i32 0, i32 0} ; [ DW_TAG_subroutine_type ]
!178 = metadata !{metadata !166, metadata !85, metadata !92}
!179 = metadata !{i32 786478, i32 0, metadata !62, metadata !"operator=", metadata !"operator=", metadata !"_ZN11ap_int_baseILi32ELb0ELb1EEaSEh", metadata !63, i32 1609, metadata !180, i1 false, i1 false, i32 0, i32 0, null, i32 256, i1 false, null, null, i32 0, metadata !75, i32 1609} ; [ DW_TAG_subprogram ]
!180 = metadata !{i32 786453, i32 0, metadata !"", i32 0, i32 0, i64 0, i64 0, i64 0, i32 0, null, metadata !181, i32 0, i32 0} ; [ DW_TAG_subroutine_type ]
!181 = metadata !{metadata !166, metadata !85, metadata !96}
!182 = metadata !{i32 786478, i32 0, metadata !62, metadata !"operator=", metadata !"operator=", metadata !"_ZN11ap_int_baseILi32ELb0ELb1EEaSEs", metadata !63, i32 1610, metadata !183, i1 false, i1 false, i32 0, i32 0, null, i32 256, i1 false, null, null, i32 0, metadata !75, i32 1610} ; [ DW_TAG_subprogram ]
!183 = metadata !{i32 786453, i32 0, metadata !"", i32 0, i32 0, i64 0, i64 0, i64 0, i32 0, null, metadata !184, i32 0, i32 0} ; [ DW_TAG_subroutine_type ]
!184 = metadata !{metadata !166, metadata !85, metadata !100}
!185 = metadata !{i32 786478, i32 0, metadata !62, metadata !"operator=", metadata !"operator=", metadata !"_ZN11ap_int_baseILi32ELb0ELb1EEaSEt", metadata !63, i32 1611, metadata !186, i1 false, i1 false, i32 0, i32 0, null, i32 256, i1 false, null, null, i32 0, metadata !75, i32 1611} ; [ DW_TAG_subprogram ]
!186 = metadata !{i32 786453, i32 0, metadata !"", i32 0, i32 0, i64 0, i64 0, i64 0, i32 0, null, metadata !187, i32 0, i32 0} ; [ DW_TAG_subroutine_type ]
!187 = metadata !{metadata !166, metadata !85, metadata !104}
!188 = metadata !{i32 786478, i32 0, metadata !62, metadata !"operator=", metadata !"operator=", metadata !"_ZN11ap_int_baseILi32ELb0ELb1EEaSEi", metadata !63, i32 1612, metadata !189, i1 false, i1 false, i32 0, i32 0, null, i32 256, i1 false, null, null, i32 0, metadata !75, i32 1612} ; [ DW_TAG_subprogram ]
!189 = metadata !{i32 786453, i32 0, metadata !"", i32 0, i32 0, i64 0, i64 0, i64 0, i32 0, null, metadata !190, i32 0, i32 0} ; [ DW_TAG_subroutine_type ]
!190 = metadata !{metadata !166, metadata !85, metadata !79}
!191 = metadata !{i32 786478, i32 0, metadata !62, metadata !"operator=", metadata !"operator=", metadata !"_ZN11ap_int_baseILi32ELb0ELb1EEaSEj", metadata !63, i32 1613, metadata !192, i1 false, i1 false, i32 0, i32 0, null, i32 256, i1 false, null, null, i32 0, metadata !75, i32 1613} ; [ DW_TAG_subprogram ]
!192 = metadata !{i32 786453, i32 0, metadata !"", i32 0, i32 0, i64 0, i64 0, i64 0, i32 0, null, metadata !193, i32 0, i32 0} ; [ DW_TAG_subroutine_type ]
!193 = metadata !{metadata !166, metadata !85, metadata !111}
!194 = metadata !{i32 786478, i32 0, metadata !62, metadata !"operator=", metadata !"operator=", metadata !"_ZN11ap_int_baseILi32ELb0ELb1EEaSEx", metadata !63, i32 1614, metadata !195, i1 false, i1 false, i32 0, i32 0, null, i32 256, i1 false, null, null, i32 0, metadata !75, i32 1614} ; [ DW_TAG_subprogram ]
!195 = metadata !{i32 786453, i32 0, metadata !"", i32 0, i32 0, i64 0, i64 0, i64 0, i32 0, null, metadata !196, i32 0, i32 0} ; [ DW_TAG_subroutine_type ]
!196 = metadata !{metadata !166, metadata !85, metadata !123}
!197 = metadata !{i32 786478, i32 0, metadata !62, metadata !"operator=", metadata !"operator=", metadata !"_ZN11ap_int_baseILi32ELb0ELb1EEaSEy", metadata !63, i32 1615, metadata !198, i1 false, i1 false, i32 0, i32 0, null, i32 256, i1 false, null, null, i32 0, metadata !75, i32 1615} ; [ DW_TAG_subprogram ]
!198 = metadata !{i32 786453, i32 0, metadata !"", i32 0, i32 0, i64 0, i64 0, i64 0, i32 0, null, metadata !199, i32 0, i32 0} ; [ DW_TAG_subroutine_type ]
!199 = metadata !{metadata !166, metadata !85, metadata !128}
!200 = metadata !{i32 786478, i32 0, metadata !62, metadata !"operator unsigned int", metadata !"operator unsigned int", metadata !"_ZNK11ap_int_baseILi32ELb0ELb1EEcvjEv", metadata !63, i32 1653, metadata !201, i1 false, i1 false, i32 0, i32 0, null, i32 256, i1 false, null, null, i32 0, metadata !75, i32 1653} ; [ DW_TAG_subprogram ]
!201 = metadata !{i32 786453, i32 0, metadata !"", i32 0, i32 0, i64 0, i64 0, i64 0, i32 0, null, metadata !202, i32 0, i32 0} ; [ DW_TAG_subroutine_type ]
!202 = metadata !{metadata !203, metadata !209}
!203 = metadata !{i32 786454, metadata !62, metadata !"RetType", metadata !63, i32 1402, i64 0, i64 0, i64 0, i32 0, metadata !204} ; [ DW_TAG_typedef ]
!204 = metadata !{i32 786454, metadata !205, metadata !"Type", metadata !63, i32 1388, i64 0, i64 0, i64 0, i32 0, metadata !111} ; [ DW_TAG_typedef ]
!205 = metadata !{i32 786434, null, metadata !"retval<4, false>", metadata !63, i32 1387, i64 8, i64 8, i32 0, i32 0, null, metadata !206, i32 0, null, metadata !207} ; [ DW_TAG_class_type ]
!206 = metadata !{i32 0}
!207 = metadata !{metadata !208, metadata !80}
!208 = metadata !{i32 786480, null, metadata !"_AP_N", metadata !79, i64 4, null, i32 0, i32 0} ; [ DW_TAG_template_value_parameter ]
!209 = metadata !{i32 786447, i32 0, metadata !"", i32 0, i32 0, i64 64, i64 64, i64 0, i32 64, metadata !156} ; [ DW_TAG_pointer_type ]
!210 = metadata !{i32 786478, i32 0, metadata !62, metadata !"to_bool", metadata !"to_bool", metadata !"_ZNK11ap_int_baseILi32ELb0ELb1EE7to_boolEv", metadata !63, i32 1659, metadata !211, i1 false, i1 false, i32 0, i32 0, null, i32 256, i1 false, null, null, i32 0, metadata !75, i32 1659} ; [ DW_TAG_subprogram ]
!211 = metadata !{i32 786453, i32 0, metadata !"", i32 0, i32 0, i64 0, i64 0, i64 0, i32 0, null, metadata !212, i32 0, i32 0} ; [ DW_TAG_subroutine_type ]
!212 = metadata !{metadata !81, metadata !209}
!213 = metadata !{i32 786478, i32 0, metadata !62, metadata !"to_uchar", metadata !"to_uchar", metadata !"_ZNK11ap_int_baseILi32ELb0ELb1EE8to_ucharEv", metadata !63, i32 1660, metadata !214, i1 false, i1 false, i32 0, i32 0, null, i32 256, i1 false, null, null, i32 0, metadata !75, i32 1660} ; [ DW_TAG_subprogram ]
!214 = metadata !{i32 786453, i32 0, metadata !"", i32 0, i32 0, i64 0, i64 0, i64 0, i32 0, null, metadata !215, i32 0, i32 0} ; [ DW_TAG_subroutine_type ]
!215 = metadata !{metadata !96, metadata !209}
!216 = metadata !{i32 786478, i32 0, metadata !62, metadata !"to_char", metadata !"to_char", metadata !"_ZNK11ap_int_baseILi32ELb0ELb1EE7to_charEv", metadata !63, i32 1661, metadata !217, i1 false, i1 false, i32 0, i32 0, null, i32 256, i1 false, null, null, i32 0, metadata !75, i32 1661} ; [ DW_TAG_subprogram ]
!217 = metadata !{i32 786453, i32 0, metadata !"", i32 0, i32 0, i64 0, i64 0, i64 0, i32 0, null, metadata !218, i32 0, i32 0} ; [ DW_TAG_subroutine_type ]
!218 = metadata !{metadata !92, metadata !209}
!219 = metadata !{i32 786478, i32 0, metadata !62, metadata !"to_ushort", metadata !"to_ushort", metadata !"_ZNK11ap_int_baseILi32ELb0ELb1EE9to_ushortEv", metadata !63, i32 1662, metadata !220, i1 false, i1 false, i32 0, i32 0, null, i32 256, i1 false, null, null, i32 0, metadata !75, i32 1662} ; [ DW_TAG_subprogram ]
!220 = metadata !{i32 786453, i32 0, metadata !"", i32 0, i32 0, i64 0, i64 0, i64 0, i32 0, null, metadata !221, i32 0, i32 0} ; [ DW_TAG_subroutine_type ]
!221 = metadata !{metadata !104, metadata !209}
!222 = metadata !{i32 786478, i32 0, metadata !62, metadata !"to_short", metadata !"to_short", metadata !"_ZNK11ap_int_baseILi32ELb0ELb1EE8to_shortEv", metadata !63, i32 1663, metadata !223, i1 false, i1 false, i32 0, i32 0, null, i32 256, i1 false, null, null, i32 0, metadata !75, i32 1663} ; [ DW_TAG_subprogram ]
!223 = metadata !{i32 786453, i32 0, metadata !"", i32 0, i32 0, i64 0, i64 0, i64 0, i32 0, null, metadata !224, i32 0, i32 0} ; [ DW_TAG_subroutine_type ]
!224 = metadata !{metadata !100, metadata !209}
!225 = metadata !{i32 786478, i32 0, metadata !62, metadata !"to_int", metadata !"to_int", metadata !"_ZNK11ap_int_baseILi32ELb0ELb1EE6to_intEv", metadata !63, i32 1664, metadata !226, i1 false, i1 false, i32 0, i32 0, null, i32 256, i1 false, null, null, i32 0, metadata !75, i32 1664} ; [ DW_TAG_subprogram ]
!226 = metadata !{i32 786453, i32 0, metadata !"", i32 0, i32 0, i64 0, i64 0, i64 0, i32 0, null, metadata !227, i32 0, i32 0} ; [ DW_TAG_subroutine_type ]
!227 = metadata !{metadata !79, metadata !209}
!228 = metadata !{i32 786478, i32 0, metadata !62, metadata !"to_uint", metadata !"to_uint", metadata !"_ZNK11ap_int_baseILi32ELb0ELb1EE7to_uintEv", metadata !63, i32 1665, metadata !229, i1 false, i1 false, i32 0, i32 0, null, i32 256, i1 false, null, null, i32 0, metadata !75, i32 1665} ; [ DW_TAG_subprogram ]
!229 = metadata !{i32 786453, i32 0, metadata !"", i32 0, i32 0, i64 0, i64 0, i64 0, i32 0, null, metadata !230, i32 0, i32 0} ; [ DW_TAG_subroutine_type ]
!230 = metadata !{metadata !111, metadata !209}
!231 = metadata !{i32 786478, i32 0, metadata !62, metadata !"to_long", metadata !"to_long", metadata !"_ZNK11ap_int_baseILi32ELb0ELb1EE7to_longEv", metadata !63, i32 1666, metadata !232, i1 false, i1 false, i32 0, i32 0, null, i32 256, i1 false, null, null, i32 0, metadata !75, i32 1666} ; [ DW_TAG_subprogram ]
!232 = metadata !{i32 786453, i32 0, metadata !"", i32 0, i32 0, i64 0, i64 0, i64 0, i32 0, null, metadata !233, i32 0, i32 0} ; [ DW_TAG_subroutine_type ]
!233 = metadata !{metadata !115, metadata !209}
!234 = metadata !{i32 786478, i32 0, metadata !62, metadata !"to_ulong", metadata !"to_ulong", metadata !"_ZNK11ap_int_baseILi32ELb0ELb1EE8to_ulongEv", metadata !63, i32 1667, metadata !235, i1 false, i1 false, i32 0, i32 0, null, i32 256, i1 false, null, null, i32 0, metadata !75, i32 1667} ; [ DW_TAG_subprogram ]
!235 = metadata !{i32 786453, i32 0, metadata !"", i32 0, i32 0, i64 0, i64 0, i64 0, i32 0, null, metadata !236, i32 0, i32 0} ; [ DW_TAG_subroutine_type ]
!236 = metadata !{metadata !119, metadata !209}
!237 = metadata !{i32 786478, i32 0, metadata !62, metadata !"to_int64", metadata !"to_int64", metadata !"_ZNK11ap_int_baseILi32ELb0ELb1EE8to_int64Ev", metadata !63, i32 1668, metadata !238, i1 false, i1 false, i32 0, i32 0, null, i32 256, i1 false, null, null, i32 0, metadata !75, i32 1668} ; [ DW_TAG_subprogram ]
!238 = metadata !{i32 786453, i32 0, metadata !"", i32 0, i32 0, i64 0, i64 0, i64 0, i32 0, null, metadata !239, i32 0, i32 0} ; [ DW_TAG_subroutine_type ]
!239 = metadata !{metadata !123, metadata !209}
!240 = metadata !{i32 786478, i32 0, metadata !62, metadata !"to_uint64", metadata !"to_uint64", metadata !"_ZNK11ap_int_baseILi32ELb0ELb1EE9to_uint64Ev", metadata !63, i32 1669, metadata !241, i1 false, i1 false, i32 0, i32 0, null, i32 256, i1 false, null, null, i32 0, metadata !75, i32 1669} ; [ DW_TAG_subprogram ]
!241 = metadata !{i32 786453, i32 0, metadata !"", i32 0, i32 0, i64 0, i64 0, i64 0, i32 0, null, metadata !242, i32 0, i32 0} ; [ DW_TAG_subroutine_type ]
!242 = metadata !{metadata !128, metadata !209}
!243 = metadata !{i32 786478, i32 0, metadata !62, metadata !"to_double", metadata !"to_double", metadata !"_ZNK11ap_int_baseILi32ELb0ELb1EE9to_doubleEv", metadata !63, i32 1670, metadata !244, i1 false, i1 false, i32 0, i32 0, null, i32 256, i1 false, null, null, i32 0, metadata !75, i32 1670} ; [ DW_TAG_subprogram ]
!244 = metadata !{i32 786453, i32 0, metadata !"", i32 0, i32 0, i64 0, i64 0, i64 0, i32 0, null, metadata !245, i32 0, i32 0} ; [ DW_TAG_subroutine_type ]
!245 = metadata !{metadata !137, metadata !209}
!246 = metadata !{i32 786478, i32 0, metadata !62, metadata !"length", metadata !"length", metadata !"_ZNK11ap_int_baseILi32ELb0ELb1EE6lengthEv", metadata !63, i32 1684, metadata !226, i1 false, i1 false, i32 0, i32 0, null, i32 256, i1 false, null, null, i32 0, metadata !75, i32 1684} ; [ DW_TAG_subprogram ]
!247 = metadata !{i32 786478, i32 0, metadata !62, metadata !"length", metadata !"length", metadata !"_ZNVK11ap_int_baseILi32ELb0ELb1EE6lengthEv", metadata !63, i32 1685, metadata !248, i1 false, i1 false, i32 0, i32 0, null, i32 256, i1 false, null, null, i32 0, metadata !75, i32 1685} ; [ DW_TAG_subprogram ]
!248 = metadata !{i32 786453, i32 0, metadata !"", i32 0, i32 0, i64 0, i64 0, i64 0, i32 0, null, metadata !249, i32 0, i32 0} ; [ DW_TAG_subroutine_type ]
!249 = metadata !{metadata !79, metadata !250}
!250 = metadata !{i32 786447, i32 0, metadata !"", i32 0, i32 0, i64 64, i64 64, i64 0, i32 64, metadata !161} ; [ DW_TAG_pointer_type ]
!251 = metadata !{i32 786478, i32 0, metadata !62, metadata !"reverse", metadata !"reverse", metadata !"_ZN11ap_int_baseILi32ELb0ELb1EE7reverseEv", metadata !63, i32 1690, metadata !252, i1 false, i1 false, i32 0, i32 0, null, i32 256, i1 false, null, null, i32 0, metadata !75, i32 1690} ; [ DW_TAG_subprogram ]
!252 = metadata !{i32 786453, i32 0, metadata !"", i32 0, i32 0, i64 0, i64 0, i64 0, i32 0, null, metadata !253, i32 0, i32 0} ; [ DW_TAG_subroutine_type ]
!253 = metadata !{metadata !166, metadata !85}
!254 = metadata !{i32 786478, i32 0, metadata !62, metadata !"iszero", metadata !"iszero", metadata !"_ZNK11ap_int_baseILi32ELb0ELb1EE6iszeroEv", metadata !63, i32 1696, metadata !211, i1 false, i1 false, i32 0, i32 0, null, i32 256, i1 false, null, null, i32 0, metadata !75, i32 1696} ; [ DW_TAG_subprogram ]
!255 = metadata !{i32 786478, i32 0, metadata !62, metadata !"is_zero", metadata !"is_zero", metadata !"_ZNK11ap_int_baseILi32ELb0ELb1EE7is_zeroEv", metadata !63, i32 1701, metadata !211, i1 false, i1 false, i32 0, i32 0, null, i32 256, i1 false, null, null, i32 0, metadata !75, i32 1701} ; [ DW_TAG_subprogram ]
!256 = metadata !{i32 786478, i32 0, metadata !62, metadata !"sign", metadata !"sign", metadata !"_ZNK11ap_int_baseILi32ELb0ELb1EE4signEv", metadata !63, i32 1706, metadata !211, i1 false, i1 false, i32 0, i32 0, null, i32 256, i1 false, null, null, i32 0, metadata !75, i32 1706} ; [ DW_TAG_subprogram ]
!257 = metadata !{i32 786478, i32 0, metadata !62, metadata !"clear", metadata !"clear", metadata !"_ZN11ap_int_baseILi32ELb0ELb1EE5clearEi", metadata !63, i32 1714, metadata !106, i1 false, i1 false, i32 0, i32 0, null, i32 256, i1 false, null, null, i32 0, metadata !75, i32 1714} ; [ DW_TAG_subprogram ]
!258 = metadata !{i32 786478, i32 0, metadata !62, metadata !"invert", metadata !"invert", metadata !"_ZN11ap_int_baseILi32ELb0ELb1EE6invertEi", metadata !63, i32 1720, metadata !106, i1 false, i1 false, i32 0, i32 0, null, i32 256, i1 false, null, null, i32 0, metadata !75, i32 1720} ; [ DW_TAG_subprogram ]
!259 = metadata !{i32 786478, i32 0, metadata !62, metadata !"test", metadata !"test", metadata !"_ZNK11ap_int_baseILi32ELb0ELb1EE4testEi", metadata !63, i32 1728, metadata !260, i1 false, i1 false, i32 0, i32 0, null, i32 256, i1 false, null, null, i32 0, metadata !75, i32 1728} ; [ DW_TAG_subprogram ]
!260 = metadata !{i32 786453, i32 0, metadata !"", i32 0, i32 0, i64 0, i64 0, i64 0, i32 0, null, metadata !261, i32 0, i32 0} ; [ DW_TAG_subroutine_type ]
!261 = metadata !{metadata !81, metadata !209, metadata !79}
!262 = metadata !{i32 786478, i32 0, metadata !62, metadata !"set", metadata !"set", metadata !"_ZN11ap_int_baseILi32ELb0ELb1EE3setEi", metadata !63, i32 1734, metadata !106, i1 false, i1 false, i32 0, i32 0, null, i32 256, i1 false, null, null, i32 0, metadata !75, i32 1734} ; [ DW_TAG_subprogram ]
!263 = metadata !{i32 786478, i32 0, metadata !62, metadata !"set", metadata !"set", metadata !"_ZN11ap_int_baseILi32ELb0ELb1EE3setEib", metadata !63, i32 1740, metadata !264, i1 false, i1 false, i32 0, i32 0, null, i32 256, i1 false, null, null, i32 0, metadata !75, i32 1740} ; [ DW_TAG_subprogram ]
!264 = metadata !{i32 786453, i32 0, metadata !"", i32 0, i32 0, i64 0, i64 0, i64 0, i32 0, null, metadata !265, i32 0, i32 0} ; [ DW_TAG_subroutine_type ]
!265 = metadata !{null, metadata !85, metadata !79, metadata !81}
!266 = metadata !{i32 786478, i32 0, metadata !62, metadata !"lrotate", metadata !"lrotate", metadata !"_ZN11ap_int_baseILi32ELb0ELb1EE7lrotateEi", metadata !63, i32 1747, metadata !106, i1 false, i1 false, i32 0, i32 0, null, i32 256, i1 false, null, null, i32 0, metadata !75, i32 1747} ; [ DW_TAG_subprogram ]
!267 = metadata !{i32 786478, i32 0, metadata !62, metadata !"rrotate", metadata !"rrotate", metadata !"_ZN11ap_int_baseILi32ELb0ELb1EE7rrotateEi", metadata !63, i32 1756, metadata !106, i1 false, i1 false, i32 0, i32 0, null, i32 256, i1 false, null, null, i32 0, metadata !75, i32 1756} ; [ DW_TAG_subprogram ]
!268 = metadata !{i32 786478, i32 0, metadata !62, metadata !"set_bit", metadata !"set_bit", metadata !"_ZN11ap_int_baseILi32ELb0ELb1EE7set_bitEib", metadata !63, i32 1764, metadata !264, i1 false, i1 false, i32 0, i32 0, null, i32 256, i1 false, null, null, i32 0, metadata !75, i32 1764} ; [ DW_TAG_subprogram ]
!269 = metadata !{i32 786478, i32 0, metadata !62, metadata !"get_bit", metadata !"get_bit", metadata !"_ZNK11ap_int_baseILi32ELb0ELb1EE7get_bitEi", metadata !63, i32 1769, metadata !260, i1 false, i1 false, i32 0, i32 0, null, i32 256, i1 false, null, null, i32 0, metadata !75, i32 1769} ; [ DW_TAG_subprogram ]
!270 = metadata !{i32 786478, i32 0, metadata !62, metadata !"b_not", metadata !"b_not", metadata !"_ZN11ap_int_baseILi32ELb0ELb1EE5b_notEv", metadata !63, i32 1774, metadata !83, i1 false, i1 false, i32 0, i32 0, null, i32 256, i1 false, null, null, i32 0, metadata !75, i32 1774} ; [ DW_TAG_subprogram ]
!271 = metadata !{i32 786478, i32 0, metadata !62, metadata !"countLeadingZeros", metadata !"countLeadingZeros", metadata !"_ZN11ap_int_baseILi32ELb0ELb1EE17countLeadingZerosEv", metadata !63, i32 1781, metadata !272, i1 false, i1 false, i32 0, i32 0, null, i32 256, i1 false, null, null, i32 0, metadata !75, i32 1781} ; [ DW_TAG_subprogram ]
!272 = metadata !{i32 786453, i32 0, metadata !"", i32 0, i32 0, i64 0, i64 0, i64 0, i32 0, null, metadata !273, i32 0, i32 0} ; [ DW_TAG_subroutine_type ]
!273 = metadata !{metadata !79, metadata !85}
!274 = metadata !{i32 786478, i32 0, metadata !62, metadata !"operator+=<64, false>", metadata !"operator+=<64, false>", metadata !"_ZN11ap_int_baseILi32ELb0ELb1EEpLILi64ELb0EEERS0_RKS_IXT_EXT0_EXleT_Li64EEE", metadata !63, i32 1822, metadata !275, i1 false, i1 false, i32 0, i32 0, null, i32 256, i1 false, null, metadata !299, i32 0, metadata !75, i32 1822} ; [ DW_TAG_subprogram ]
!275 = metadata !{i32 786453, i32 0, metadata !"", i32 0, i32 0, i64 0, i64 0, i64 0, i32 0, null, metadata !276, i32 0, i32 0} ; [ DW_TAG_subroutine_type ]
!276 = metadata !{metadata !166, metadata !85, metadata !277}
!277 = metadata !{i32 786448, null, null, null, i32 0, i64 0, i64 0, i64 0, i32 0, metadata !278} ; [ DW_TAG_reference_type ]
!278 = metadata !{i32 786470, null, metadata !"", null, i32 0, i64 0, i64 0, i64 0, i32 0, metadata !279} ; [ DW_TAG_const_type ]
!279 = metadata !{i32 786434, null, metadata !"ap_int_base<64, false, true>", metadata !63, i32 1397, i64 64, i64 64, i32 0, i32 0, null, metadata !280, i32 0, null, metadata !831} ; [ DW_TAG_class_type ]
!280 = metadata !{metadata !281, metadata !292, metadata !296, metadata !302, metadata !308, metadata !311, metadata !314, metadata !317, metadata !320, metadata !323, metadata !326, metadata !329, metadata !332, metadata !335, metadata !338, metadata !341, metadata !344, metadata !347, metadata !350, metadata !353, metadata !357, metadata !360, metadata !363, metadata !364, metadata !368, metadata !371, metadata !374, metadata !377, metadata !380, metadata !383, metadata !386, metadata !389, metadata !392, metadata !395, metadata !398, metadata !401, metadata !410, metadata !413, metadata !416, metadata !419, metadata !422, metadata !425, metadata !428, metadata !431, metadata !434, metadata !437, metadata !440, metadata !443, metadata !446, metadata !447, metadata !451, metadata !454, metadata !455, metadata !456, metadata !457, metadata !458, metadata !459, metadata !462, metadata !463, metadata !466, metadata !467, metadata !468, metadata !469, metadata !470, metadata !471, metadata !474, metadata !475, metadata !476, metadata !479, metadata !480, metadata !483, metadata !484, metadata !734, metadata !795, metadata !796, metadata !799, metadata !800, metadata !804, metadata !805, metadata !806, metadata !807, metadata !810, metadata !811, metadata !812, metadata !813, metadata !814, metadata !815, metadata !816, metadata !817, metadata !818, metadata !819, metadata !820, metadata !821, metadata !824, metadata !827, metadata !830}
!281 = metadata !{i32 786460, metadata !279, null, metadata !63, i32 0, i64 0, i64 0, i64 0, i32 0, metadata !282} ; [ DW_TAG_inheritance ]
!282 = metadata !{i32 786434, null, metadata !"ssdm_int<64 + 1024 * 0, false>", metadata !67, i32 68, i64 64, i64 64, i32 0, i32 0, null, metadata !283, i32 0, null, metadata !290} ; [ DW_TAG_class_type ]
!283 = metadata !{metadata !284, metadata !286}
!284 = metadata !{i32 786445, metadata !282, metadata !"V", metadata !67, i32 68, i64 64, i64 64, i64 0, i32 0, metadata !285} ; [ DW_TAG_member ]
!285 = metadata !{i32 786468, null, metadata !"uint64", null, i32 0, i64 64, i64 64, i64 0, i32 0, i32 7} ; [ DW_TAG_base_type ]
!286 = metadata !{i32 786478, i32 0, metadata !282, metadata !"ssdm_int", metadata !"ssdm_int", metadata !"", metadata !67, i32 68, metadata !287, i1 false, i1 false, i32 0, i32 0, null, i32 256, i1 false, null, null, i32 0, metadata !75, i32 68} ; [ DW_TAG_subprogram ]
!287 = metadata !{i32 786453, i32 0, metadata !"", i32 0, i32 0, i64 0, i64 0, i64 0, i32 0, null, metadata !288, i32 0, i32 0} ; [ DW_TAG_subroutine_type ]
!288 = metadata !{null, metadata !289}
!289 = metadata !{i32 786447, i32 0, metadata !"", i32 0, i32 0, i64 64, i64 64, i64 0, i32 64, metadata !282} ; [ DW_TAG_pointer_type ]
!290 = metadata !{metadata !291, metadata !80}
!291 = metadata !{i32 786480, null, metadata !"_AP_N", metadata !79, i64 64, null, i32 0, i32 0} ; [ DW_TAG_template_value_parameter ]
!292 = metadata !{i32 786478, i32 0, metadata !279, metadata !"ap_int_base", metadata !"ap_int_base", metadata !"", metadata !63, i32 1438, metadata !293, i1 false, i1 false, i32 0, i32 0, null, i32 256, i1 false, null, null, i32 0, metadata !75, i32 1438} ; [ DW_TAG_subprogram ]
!293 = metadata !{i32 786453, i32 0, metadata !"", i32 0, i32 0, i64 0, i64 0, i64 0, i32 0, null, metadata !294, i32 0, i32 0} ; [ DW_TAG_subroutine_type ]
!294 = metadata !{null, metadata !295}
!295 = metadata !{i32 786447, i32 0, metadata !"", i32 0, i32 0, i64 64, i64 64, i64 0, i32 64, metadata !279} ; [ DW_TAG_pointer_type ]
!296 = metadata !{i32 786478, i32 0, metadata !279, metadata !"ap_int_base<64, false>", metadata !"ap_int_base<64, false>", metadata !"", metadata !63, i32 1450, metadata !297, i1 false, i1 false, i32 0, i32 0, null, i32 256, i1 false, null, metadata !299, i32 0, metadata !75, i32 1450} ; [ DW_TAG_subprogram ]
!297 = metadata !{i32 786453, i32 0, metadata !"", i32 0, i32 0, i64 0, i64 0, i64 0, i32 0, null, metadata !298, i32 0, i32 0} ; [ DW_TAG_subroutine_type ]
!298 = metadata !{null, metadata !295, metadata !277}
!299 = metadata !{metadata !300, metadata !301}
!300 = metadata !{i32 786480, null, metadata !"_AP_W2", metadata !79, i64 64, null, i32 0, i32 0} ; [ DW_TAG_template_value_parameter ]
!301 = metadata !{i32 786480, null, metadata !"_AP_S2", metadata !81, i64 0, null, i32 0, i32 0} ; [ DW_TAG_template_value_parameter ]
!302 = metadata !{i32 786478, i32 0, metadata !279, metadata !"ap_int_base<64, false>", metadata !"ap_int_base<64, false>", metadata !"", metadata !63, i32 1453, metadata !303, i1 false, i1 false, i32 0, i32 0, null, i32 256, i1 false, null, metadata !299, i32 0, metadata !75, i32 1453} ; [ DW_TAG_subprogram ]
!303 = metadata !{i32 786453, i32 0, metadata !"", i32 0, i32 0, i64 0, i64 0, i64 0, i32 0, null, metadata !304, i32 0, i32 0} ; [ DW_TAG_subroutine_type ]
!304 = metadata !{null, metadata !295, metadata !305}
!305 = metadata !{i32 786448, null, null, null, i32 0, i64 0, i64 0, i64 0, i32 0, metadata !306} ; [ DW_TAG_reference_type ]
!306 = metadata !{i32 786470, null, metadata !"", null, i32 0, i64 0, i64 0, i64 0, i32 0, metadata !307} ; [ DW_TAG_const_type ]
!307 = metadata !{i32 786485, null, metadata !"", null, i32 0, i64 0, i64 0, i64 0, i32 0, metadata !279} ; [ DW_TAG_volatile_type ]
!308 = metadata !{i32 786478, i32 0, metadata !279, metadata !"ap_int_base", metadata !"ap_int_base", metadata !"", metadata !63, i32 1460, metadata !309, i1 false, i1 false, i32 0, i32 0, null, i32 384, i1 false, null, null, i32 0, metadata !75, i32 1460} ; [ DW_TAG_subprogram ]
!309 = metadata !{i32 786453, i32 0, metadata !"", i32 0, i32 0, i64 0, i64 0, i64 0, i32 0, null, metadata !310, i32 0, i32 0} ; [ DW_TAG_subroutine_type ]
!310 = metadata !{null, metadata !295, metadata !81}
!311 = metadata !{i32 786478, i32 0, metadata !279, metadata !"ap_int_base", metadata !"ap_int_base", metadata !"", metadata !63, i32 1461, metadata !312, i1 false, i1 false, i32 0, i32 0, null, i32 384, i1 false, null, null, i32 0, metadata !75, i32 1461} ; [ DW_TAG_subprogram ]
!312 = metadata !{i32 786453, i32 0, metadata !"", i32 0, i32 0, i64 0, i64 0, i64 0, i32 0, null, metadata !313, i32 0, i32 0} ; [ DW_TAG_subroutine_type ]
!313 = metadata !{null, metadata !295, metadata !92}
!314 = metadata !{i32 786478, i32 0, metadata !279, metadata !"ap_int_base", metadata !"ap_int_base", metadata !"", metadata !63, i32 1462, metadata !315, i1 false, i1 false, i32 0, i32 0, null, i32 384, i1 false, null, null, i32 0, metadata !75, i32 1462} ; [ DW_TAG_subprogram ]
!315 = metadata !{i32 786453, i32 0, metadata !"", i32 0, i32 0, i64 0, i64 0, i64 0, i32 0, null, metadata !316, i32 0, i32 0} ; [ DW_TAG_subroutine_type ]
!316 = metadata !{null, metadata !295, metadata !96}
!317 = metadata !{i32 786478, i32 0, metadata !279, metadata !"ap_int_base", metadata !"ap_int_base", metadata !"", metadata !63, i32 1463, metadata !318, i1 false, i1 false, i32 0, i32 0, null, i32 384, i1 false, null, null, i32 0, metadata !75, i32 1463} ; [ DW_TAG_subprogram ]
!318 = metadata !{i32 786453, i32 0, metadata !"", i32 0, i32 0, i64 0, i64 0, i64 0, i32 0, null, metadata !319, i32 0, i32 0} ; [ DW_TAG_subroutine_type ]
!319 = metadata !{null, metadata !295, metadata !100}
!320 = metadata !{i32 786478, i32 0, metadata !279, metadata !"ap_int_base", metadata !"ap_int_base", metadata !"", metadata !63, i32 1464, metadata !321, i1 false, i1 false, i32 0, i32 0, null, i32 384, i1 false, null, null, i32 0, metadata !75, i32 1464} ; [ DW_TAG_subprogram ]
!321 = metadata !{i32 786453, i32 0, metadata !"", i32 0, i32 0, i64 0, i64 0, i64 0, i32 0, null, metadata !322, i32 0, i32 0} ; [ DW_TAG_subroutine_type ]
!322 = metadata !{null, metadata !295, metadata !104}
!323 = metadata !{i32 786478, i32 0, metadata !279, metadata !"ap_int_base", metadata !"ap_int_base", metadata !"", metadata !63, i32 1465, metadata !324, i1 false, i1 false, i32 0, i32 0, null, i32 384, i1 false, null, null, i32 0, metadata !75, i32 1465} ; [ DW_TAG_subprogram ]
!324 = metadata !{i32 786453, i32 0, metadata !"", i32 0, i32 0, i64 0, i64 0, i64 0, i32 0, null, metadata !325, i32 0, i32 0} ; [ DW_TAG_subroutine_type ]
!325 = metadata !{null, metadata !295, metadata !79}
!326 = metadata !{i32 786478, i32 0, metadata !279, metadata !"ap_int_base", metadata !"ap_int_base", metadata !"", metadata !63, i32 1466, metadata !327, i1 false, i1 false, i32 0, i32 0, null, i32 384, i1 false, null, null, i32 0, metadata !75, i32 1466} ; [ DW_TAG_subprogram ]
!327 = metadata !{i32 786453, i32 0, metadata !"", i32 0, i32 0, i64 0, i64 0, i64 0, i32 0, null, metadata !328, i32 0, i32 0} ; [ DW_TAG_subroutine_type ]
!328 = metadata !{null, metadata !295, metadata !111}
!329 = metadata !{i32 786478, i32 0, metadata !279, metadata !"ap_int_base", metadata !"ap_int_base", metadata !"", metadata !63, i32 1467, metadata !330, i1 false, i1 false, i32 0, i32 0, null, i32 384, i1 false, null, null, i32 0, metadata !75, i32 1467} ; [ DW_TAG_subprogram ]
!330 = metadata !{i32 786453, i32 0, metadata !"", i32 0, i32 0, i64 0, i64 0, i64 0, i32 0, null, metadata !331, i32 0, i32 0} ; [ DW_TAG_subroutine_type ]
!331 = metadata !{null, metadata !295, metadata !115}
!332 = metadata !{i32 786478, i32 0, metadata !279, metadata !"ap_int_base", metadata !"ap_int_base", metadata !"", metadata !63, i32 1468, metadata !333, i1 false, i1 false, i32 0, i32 0, null, i32 384, i1 false, null, null, i32 0, metadata !75, i32 1468} ; [ DW_TAG_subprogram ]
!333 = metadata !{i32 786453, i32 0, metadata !"", i32 0, i32 0, i64 0, i64 0, i64 0, i32 0, null, metadata !334, i32 0, i32 0} ; [ DW_TAG_subroutine_type ]
!334 = metadata !{null, metadata !295, metadata !119}
!335 = metadata !{i32 786478, i32 0, metadata !279, metadata !"ap_int_base", metadata !"ap_int_base", metadata !"", metadata !63, i32 1469, metadata !336, i1 false, i1 false, i32 0, i32 0, null, i32 384, i1 false, null, null, i32 0, metadata !75, i32 1469} ; [ DW_TAG_subprogram ]
!336 = metadata !{i32 786453, i32 0, metadata !"", i32 0, i32 0, i64 0, i64 0, i64 0, i32 0, null, metadata !337, i32 0, i32 0} ; [ DW_TAG_subroutine_type ]
!337 = metadata !{null, metadata !295, metadata !123}
!338 = metadata !{i32 786478, i32 0, metadata !279, metadata !"ap_int_base", metadata !"ap_int_base", metadata !"", metadata !63, i32 1470, metadata !339, i1 false, i1 false, i32 0, i32 0, null, i32 384, i1 false, null, null, i32 0, metadata !75, i32 1470} ; [ DW_TAG_subprogram ]
!339 = metadata !{i32 786453, i32 0, metadata !"", i32 0, i32 0, i64 0, i64 0, i64 0, i32 0, null, metadata !340, i32 0, i32 0} ; [ DW_TAG_subroutine_type ]
!340 = metadata !{null, metadata !295, metadata !128}
!341 = metadata !{i32 786478, i32 0, metadata !279, metadata !"ap_int_base", metadata !"ap_int_base", metadata !"", metadata !63, i32 1471, metadata !342, i1 false, i1 false, i32 0, i32 0, null, i32 384, i1 false, null, null, i32 0, metadata !75, i32 1471} ; [ DW_TAG_subprogram ]
!342 = metadata !{i32 786453, i32 0, metadata !"", i32 0, i32 0, i64 0, i64 0, i64 0, i32 0, null, metadata !343, i32 0, i32 0} ; [ DW_TAG_subroutine_type ]
!343 = metadata !{null, metadata !295, metadata !133}
!344 = metadata !{i32 786478, i32 0, metadata !279, metadata !"ap_int_base", metadata !"ap_int_base", metadata !"", metadata !63, i32 1472, metadata !345, i1 false, i1 false, i32 0, i32 0, null, i32 384, i1 false, null, null, i32 0, metadata !75, i32 1472} ; [ DW_TAG_subprogram ]
!345 = metadata !{i32 786453, i32 0, metadata !"", i32 0, i32 0, i64 0, i64 0, i64 0, i32 0, null, metadata !346, i32 0, i32 0} ; [ DW_TAG_subroutine_type ]
!346 = metadata !{null, metadata !295, metadata !137}
!347 = metadata !{i32 786478, i32 0, metadata !279, metadata !"ap_int_base", metadata !"ap_int_base", metadata !"", metadata !63, i32 1499, metadata !348, i1 false, i1 false, i32 0, i32 0, null, i32 256, i1 false, null, null, i32 0, metadata !75, i32 1499} ; [ DW_TAG_subprogram ]
!348 = metadata !{i32 786453, i32 0, metadata !"", i32 0, i32 0, i64 0, i64 0, i64 0, i32 0, null, metadata !349, i32 0, i32 0} ; [ DW_TAG_subroutine_type ]
!349 = metadata !{null, metadata !295, metadata !141}
!350 = metadata !{i32 786478, i32 0, metadata !279, metadata !"ap_int_base", metadata !"ap_int_base", metadata !"", metadata !63, i32 1506, metadata !351, i1 false, i1 false, i32 0, i32 0, null, i32 256, i1 false, null, null, i32 0, metadata !75, i32 1506} ; [ DW_TAG_subprogram ]
!351 = metadata !{i32 786453, i32 0, metadata !"", i32 0, i32 0, i64 0, i64 0, i64 0, i32 0, null, metadata !352, i32 0, i32 0} ; [ DW_TAG_subroutine_type ]
!352 = metadata !{null, metadata !295, metadata !141, metadata !92}
!353 = metadata !{i32 786478, i32 0, metadata !279, metadata !"read", metadata !"read", metadata !"_ZNV11ap_int_baseILi64ELb0ELb1EE4readEv", metadata !63, i32 1527, metadata !354, i1 false, i1 false, i32 0, i32 0, null, i32 256, i1 false, null, null, i32 0, metadata !75, i32 1527} ; [ DW_TAG_subprogram ]
!354 = metadata !{i32 786453, i32 0, metadata !"", i32 0, i32 0, i64 0, i64 0, i64 0, i32 0, null, metadata !355, i32 0, i32 0} ; [ DW_TAG_subroutine_type ]
!355 = metadata !{metadata !279, metadata !356}
!356 = metadata !{i32 786447, i32 0, metadata !"", i32 0, i32 0, i64 64, i64 64, i64 0, i32 64, metadata !307} ; [ DW_TAG_pointer_type ]
!357 = metadata !{i32 786478, i32 0, metadata !279, metadata !"write", metadata !"write", metadata !"_ZNV11ap_int_baseILi64ELb0ELb1EE5writeERKS0_", metadata !63, i32 1533, metadata !358, i1 false, i1 false, i32 0, i32 0, null, i32 256, i1 false, null, null, i32 0, metadata !75, i32 1533} ; [ DW_TAG_subprogram ]
!358 = metadata !{i32 786453, i32 0, metadata !"", i32 0, i32 0, i64 0, i64 0, i64 0, i32 0, null, metadata !359, i32 0, i32 0} ; [ DW_TAG_subroutine_type ]
!359 = metadata !{null, metadata !356, metadata !277}
!360 = metadata !{i32 786478, i32 0, metadata !279, metadata !"operator=", metadata !"operator=", metadata !"_ZNV11ap_int_baseILi64ELb0ELb1EEaSERVKS0_", metadata !63, i32 1545, metadata !361, i1 false, i1 false, i32 0, i32 0, null, i32 256, i1 false, null, null, i32 0, metadata !75, i32 1545} ; [ DW_TAG_subprogram ]
!361 = metadata !{i32 786453, i32 0, metadata !"", i32 0, i32 0, i64 0, i64 0, i64 0, i32 0, null, metadata !362, i32 0, i32 0} ; [ DW_TAG_subroutine_type ]
!362 = metadata !{null, metadata !356, metadata !305}
!363 = metadata !{i32 786478, i32 0, metadata !279, metadata !"operator=", metadata !"operator=", metadata !"_ZNV11ap_int_baseILi64ELb0ELb1EEaSERKS0_", metadata !63, i32 1554, metadata !358, i1 false, i1 false, i32 0, i32 0, null, i32 256, i1 false, null, null, i32 0, metadata !75, i32 1554} ; [ DW_TAG_subprogram ]
!364 = metadata !{i32 786478, i32 0, metadata !279, metadata !"operator=", metadata !"operator=", metadata !"_ZN11ap_int_baseILi64ELb0ELb1EEaSERVKS0_", metadata !63, i32 1577, metadata !365, i1 false, i1 false, i32 0, i32 0, null, i32 256, i1 false, null, null, i32 0, metadata !75, i32 1577} ; [ DW_TAG_subprogram ]
!365 = metadata !{i32 786453, i32 0, metadata !"", i32 0, i32 0, i64 0, i64 0, i64 0, i32 0, null, metadata !366, i32 0, i32 0} ; [ DW_TAG_subroutine_type ]
!366 = metadata !{metadata !367, metadata !295, metadata !305}
!367 = metadata !{i32 786448, null, null, null, i32 0, i64 0, i64 0, i64 0, i32 0, metadata !279} ; [ DW_TAG_reference_type ]
!368 = metadata !{i32 786478, i32 0, metadata !279, metadata !"operator=", metadata !"operator=", metadata !"_ZN11ap_int_baseILi64ELb0ELb1EEaSERKS0_", metadata !63, i32 1582, metadata !369, i1 false, i1 false, i32 0, i32 0, null, i32 256, i1 false, null, null, i32 0, metadata !75, i32 1582} ; [ DW_TAG_subprogram ]
!369 = metadata !{i32 786453, i32 0, metadata !"", i32 0, i32 0, i64 0, i64 0, i64 0, i32 0, null, metadata !370, i32 0, i32 0} ; [ DW_TAG_subroutine_type ]
!370 = metadata !{metadata !367, metadata !295, metadata !277}
!371 = metadata !{i32 786478, i32 0, metadata !279, metadata !"operator=", metadata !"operator=", metadata !"_ZN11ap_int_baseILi64ELb0ELb1EEaSEPKc", metadata !63, i32 1586, metadata !372, i1 false, i1 false, i32 0, i32 0, null, i32 256, i1 false, null, null, i32 0, metadata !75, i32 1586} ; [ DW_TAG_subprogram ]
!372 = metadata !{i32 786453, i32 0, metadata !"", i32 0, i32 0, i64 0, i64 0, i64 0, i32 0, null, metadata !373, i32 0, i32 0} ; [ DW_TAG_subroutine_type ]
!373 = metadata !{metadata !367, metadata !295, metadata !141}
!374 = metadata !{i32 786478, i32 0, metadata !279, metadata !"set", metadata !"set", metadata !"_ZN11ap_int_baseILi64ELb0ELb1EE3setEPKca", metadata !63, i32 1594, metadata !375, i1 false, i1 false, i32 0, i32 0, null, i32 256, i1 false, null, null, i32 0, metadata !75, i32 1594} ; [ DW_TAG_subprogram ]
!375 = metadata !{i32 786453, i32 0, metadata !"", i32 0, i32 0, i64 0, i64 0, i64 0, i32 0, null, metadata !376, i32 0, i32 0} ; [ DW_TAG_subroutine_type ]
!376 = metadata !{metadata !367, metadata !295, metadata !141, metadata !92}
!377 = metadata !{i32 786478, i32 0, metadata !279, metadata !"operator=", metadata !"operator=", metadata !"_ZN11ap_int_baseILi64ELb0ELb1EEaSEa", metadata !63, i32 1608, metadata !378, i1 false, i1 false, i32 0, i32 0, null, i32 256, i1 false, null, null, i32 0, metadata !75, i32 1608} ; [ DW_TAG_subprogram ]
!378 = metadata !{i32 786453, i32 0, metadata !"", i32 0, i32 0, i64 0, i64 0, i64 0, i32 0, null, metadata !379, i32 0, i32 0} ; [ DW_TAG_subroutine_type ]
!379 = metadata !{metadata !367, metadata !295, metadata !92}
!380 = metadata !{i32 786478, i32 0, metadata !279, metadata !"operator=", metadata !"operator=", metadata !"_ZN11ap_int_baseILi64ELb0ELb1EEaSEh", metadata !63, i32 1609, metadata !381, i1 false, i1 false, i32 0, i32 0, null, i32 256, i1 false, null, null, i32 0, metadata !75, i32 1609} ; [ DW_TAG_subprogram ]
!381 = metadata !{i32 786453, i32 0, metadata !"", i32 0, i32 0, i64 0, i64 0, i64 0, i32 0, null, metadata !382, i32 0, i32 0} ; [ DW_TAG_subroutine_type ]
!382 = metadata !{metadata !367, metadata !295, metadata !96}
!383 = metadata !{i32 786478, i32 0, metadata !279, metadata !"operator=", metadata !"operator=", metadata !"_ZN11ap_int_baseILi64ELb0ELb1EEaSEs", metadata !63, i32 1610, metadata !384, i1 false, i1 false, i32 0, i32 0, null, i32 256, i1 false, null, null, i32 0, metadata !75, i32 1610} ; [ DW_TAG_subprogram ]
!384 = metadata !{i32 786453, i32 0, metadata !"", i32 0, i32 0, i64 0, i64 0, i64 0, i32 0, null, metadata !385, i32 0, i32 0} ; [ DW_TAG_subroutine_type ]
!385 = metadata !{metadata !367, metadata !295, metadata !100}
!386 = metadata !{i32 786478, i32 0, metadata !279, metadata !"operator=", metadata !"operator=", metadata !"_ZN11ap_int_baseILi64ELb0ELb1EEaSEt", metadata !63, i32 1611, metadata !387, i1 false, i1 false, i32 0, i32 0, null, i32 256, i1 false, null, null, i32 0, metadata !75, i32 1611} ; [ DW_TAG_subprogram ]
!387 = metadata !{i32 786453, i32 0, metadata !"", i32 0, i32 0, i64 0, i64 0, i64 0, i32 0, null, metadata !388, i32 0, i32 0} ; [ DW_TAG_subroutine_type ]
!388 = metadata !{metadata !367, metadata !295, metadata !104}
!389 = metadata !{i32 786478, i32 0, metadata !279, metadata !"operator=", metadata !"operator=", metadata !"_ZN11ap_int_baseILi64ELb0ELb1EEaSEi", metadata !63, i32 1612, metadata !390, i1 false, i1 false, i32 0, i32 0, null, i32 256, i1 false, null, null, i32 0, metadata !75, i32 1612} ; [ DW_TAG_subprogram ]
!390 = metadata !{i32 786453, i32 0, metadata !"", i32 0, i32 0, i64 0, i64 0, i64 0, i32 0, null, metadata !391, i32 0, i32 0} ; [ DW_TAG_subroutine_type ]
!391 = metadata !{metadata !367, metadata !295, metadata !79}
!392 = metadata !{i32 786478, i32 0, metadata !279, metadata !"operator=", metadata !"operator=", metadata !"_ZN11ap_int_baseILi64ELb0ELb1EEaSEj", metadata !63, i32 1613, metadata !393, i1 false, i1 false, i32 0, i32 0, null, i32 256, i1 false, null, null, i32 0, metadata !75, i32 1613} ; [ DW_TAG_subprogram ]
!393 = metadata !{i32 786453, i32 0, metadata !"", i32 0, i32 0, i64 0, i64 0, i64 0, i32 0, null, metadata !394, i32 0, i32 0} ; [ DW_TAG_subroutine_type ]
!394 = metadata !{metadata !367, metadata !295, metadata !111}
!395 = metadata !{i32 786478, i32 0, metadata !279, metadata !"operator=", metadata !"operator=", metadata !"_ZN11ap_int_baseILi64ELb0ELb1EEaSEx", metadata !63, i32 1614, metadata !396, i1 false, i1 false, i32 0, i32 0, null, i32 256, i1 false, null, null, i32 0, metadata !75, i32 1614} ; [ DW_TAG_subprogram ]
!396 = metadata !{i32 786453, i32 0, metadata !"", i32 0, i32 0, i64 0, i64 0, i64 0, i32 0, null, metadata !397, i32 0, i32 0} ; [ DW_TAG_subroutine_type ]
!397 = metadata !{metadata !367, metadata !295, metadata !123}
!398 = metadata !{i32 786478, i32 0, metadata !279, metadata !"operator=", metadata !"operator=", metadata !"_ZN11ap_int_baseILi64ELb0ELb1EEaSEy", metadata !63, i32 1615, metadata !399, i1 false, i1 false, i32 0, i32 0, null, i32 256, i1 false, null, null, i32 0, metadata !75, i32 1615} ; [ DW_TAG_subprogram ]
!399 = metadata !{i32 786453, i32 0, metadata !"", i32 0, i32 0, i64 0, i64 0, i64 0, i32 0, null, metadata !400, i32 0, i32 0} ; [ DW_TAG_subroutine_type ]
!400 = metadata !{metadata !367, metadata !295, metadata !128}
!401 = metadata !{i32 786478, i32 0, metadata !279, metadata !"operator unsigned long long", metadata !"operator unsigned long long", metadata !"_ZNK11ap_int_baseILi64ELb0ELb1EEcvyEv", metadata !63, i32 1653, metadata !402, i1 false, i1 false, i32 0, i32 0, null, i32 256, i1 false, null, null, i32 0, metadata !75, i32 1653} ; [ DW_TAG_subprogram ]
!402 = metadata !{i32 786453, i32 0, metadata !"", i32 0, i32 0, i64 0, i64 0, i64 0, i32 0, null, metadata !403, i32 0, i32 0} ; [ DW_TAG_subroutine_type ]
!403 = metadata !{metadata !404, metadata !409}
!404 = metadata !{i32 786454, metadata !279, metadata !"RetType", metadata !63, i32 1402, i64 0, i64 0, i64 0, i32 0, metadata !405} ; [ DW_TAG_typedef ]
!405 = metadata !{i32 786454, metadata !406, metadata !"Type", metadata !63, i32 1363, i64 0, i64 0, i64 0, i32 0, metadata !128} ; [ DW_TAG_typedef ]
!406 = metadata !{i32 786434, null, metadata !"retval<8, false>", metadata !63, i32 1362, i64 8, i64 8, i32 0, i32 0, null, metadata !206, i32 0, null, metadata !407} ; [ DW_TAG_class_type ]
!407 = metadata !{metadata !408, metadata !80}
!408 = metadata !{i32 786480, null, metadata !"_AP_N", metadata !79, i64 8, null, i32 0, i32 0} ; [ DW_TAG_template_value_parameter ]
!409 = metadata !{i32 786447, i32 0, metadata !"", i32 0, i32 0, i64 64, i64 64, i64 0, i32 64, metadata !278} ; [ DW_TAG_pointer_type ]
!410 = metadata !{i32 786478, i32 0, metadata !279, metadata !"to_bool", metadata !"to_bool", metadata !"_ZNK11ap_int_baseILi64ELb0ELb1EE7to_boolEv", metadata !63, i32 1659, metadata !411, i1 false, i1 false, i32 0, i32 0, null, i32 256, i1 false, null, null, i32 0, metadata !75, i32 1659} ; [ DW_TAG_subprogram ]
!411 = metadata !{i32 786453, i32 0, metadata !"", i32 0, i32 0, i64 0, i64 0, i64 0, i32 0, null, metadata !412, i32 0, i32 0} ; [ DW_TAG_subroutine_type ]
!412 = metadata !{metadata !81, metadata !409}
!413 = metadata !{i32 786478, i32 0, metadata !279, metadata !"to_uchar", metadata !"to_uchar", metadata !"_ZNK11ap_int_baseILi64ELb0ELb1EE8to_ucharEv", metadata !63, i32 1660, metadata !414, i1 false, i1 false, i32 0, i32 0, null, i32 256, i1 false, null, null, i32 0, metadata !75, i32 1660} ; [ DW_TAG_subprogram ]
!414 = metadata !{i32 786453, i32 0, metadata !"", i32 0, i32 0, i64 0, i64 0, i64 0, i32 0, null, metadata !415, i32 0, i32 0} ; [ DW_TAG_subroutine_type ]
!415 = metadata !{metadata !96, metadata !409}
!416 = metadata !{i32 786478, i32 0, metadata !279, metadata !"to_char", metadata !"to_char", metadata !"_ZNK11ap_int_baseILi64ELb0ELb1EE7to_charEv", metadata !63, i32 1661, metadata !417, i1 false, i1 false, i32 0, i32 0, null, i32 256, i1 false, null, null, i32 0, metadata !75, i32 1661} ; [ DW_TAG_subprogram ]
!417 = metadata !{i32 786453, i32 0, metadata !"", i32 0, i32 0, i64 0, i64 0, i64 0, i32 0, null, metadata !418, i32 0, i32 0} ; [ DW_TAG_subroutine_type ]
!418 = metadata !{metadata !92, metadata !409}
!419 = metadata !{i32 786478, i32 0, metadata !279, metadata !"to_ushort", metadata !"to_ushort", metadata !"_ZNK11ap_int_baseILi64ELb0ELb1EE9to_ushortEv", metadata !63, i32 1662, metadata !420, i1 false, i1 false, i32 0, i32 0, null, i32 256, i1 false, null, null, i32 0, metadata !75, i32 1662} ; [ DW_TAG_subprogram ]
!420 = metadata !{i32 786453, i32 0, metadata !"", i32 0, i32 0, i64 0, i64 0, i64 0, i32 0, null, metadata !421, i32 0, i32 0} ; [ DW_TAG_subroutine_type ]
!421 = metadata !{metadata !104, metadata !409}
!422 = metadata !{i32 786478, i32 0, metadata !279, metadata !"to_short", metadata !"to_short", metadata !"_ZNK11ap_int_baseILi64ELb0ELb1EE8to_shortEv", metadata !63, i32 1663, metadata !423, i1 false, i1 false, i32 0, i32 0, null, i32 256, i1 false, null, null, i32 0, metadata !75, i32 1663} ; [ DW_TAG_subprogram ]
!423 = metadata !{i32 786453, i32 0, metadata !"", i32 0, i32 0, i64 0, i64 0, i64 0, i32 0, null, metadata !424, i32 0, i32 0} ; [ DW_TAG_subroutine_type ]
!424 = metadata !{metadata !100, metadata !409}
!425 = metadata !{i32 786478, i32 0, metadata !279, metadata !"to_int", metadata !"to_int", metadata !"_ZNK11ap_int_baseILi64ELb0ELb1EE6to_intEv", metadata !63, i32 1664, metadata !426, i1 false, i1 false, i32 0, i32 0, null, i32 256, i1 false, null, null, i32 0, metadata !75, i32 1664} ; [ DW_TAG_subprogram ]
!426 = metadata !{i32 786453, i32 0, metadata !"", i32 0, i32 0, i64 0, i64 0, i64 0, i32 0, null, metadata !427, i32 0, i32 0} ; [ DW_TAG_subroutine_type ]
!427 = metadata !{metadata !79, metadata !409}
!428 = metadata !{i32 786478, i32 0, metadata !279, metadata !"to_uint", metadata !"to_uint", metadata !"_ZNK11ap_int_baseILi64ELb0ELb1EE7to_uintEv", metadata !63, i32 1665, metadata !429, i1 false, i1 false, i32 0, i32 0, null, i32 256, i1 false, null, null, i32 0, metadata !75, i32 1665} ; [ DW_TAG_subprogram ]
!429 = metadata !{i32 786453, i32 0, metadata !"", i32 0, i32 0, i64 0, i64 0, i64 0, i32 0, null, metadata !430, i32 0, i32 0} ; [ DW_TAG_subroutine_type ]
!430 = metadata !{metadata !111, metadata !409}
!431 = metadata !{i32 786478, i32 0, metadata !279, metadata !"to_long", metadata !"to_long", metadata !"_ZNK11ap_int_baseILi64ELb0ELb1EE7to_longEv", metadata !63, i32 1666, metadata !432, i1 false, i1 false, i32 0, i32 0, null, i32 256, i1 false, null, null, i32 0, metadata !75, i32 1666} ; [ DW_TAG_subprogram ]
!432 = metadata !{i32 786453, i32 0, metadata !"", i32 0, i32 0, i64 0, i64 0, i64 0, i32 0, null, metadata !433, i32 0, i32 0} ; [ DW_TAG_subroutine_type ]
!433 = metadata !{metadata !115, metadata !409}
!434 = metadata !{i32 786478, i32 0, metadata !279, metadata !"to_ulong", metadata !"to_ulong", metadata !"_ZNK11ap_int_baseILi64ELb0ELb1EE8to_ulongEv", metadata !63, i32 1667, metadata !435, i1 false, i1 false, i32 0, i32 0, null, i32 256, i1 false, null, null, i32 0, metadata !75, i32 1667} ; [ DW_TAG_subprogram ]
!435 = metadata !{i32 786453, i32 0, metadata !"", i32 0, i32 0, i64 0, i64 0, i64 0, i32 0, null, metadata !436, i32 0, i32 0} ; [ DW_TAG_subroutine_type ]
!436 = metadata !{metadata !119, metadata !409}
!437 = metadata !{i32 786478, i32 0, metadata !279, metadata !"to_int64", metadata !"to_int64", metadata !"_ZNK11ap_int_baseILi64ELb0ELb1EE8to_int64Ev", metadata !63, i32 1668, metadata !438, i1 false, i1 false, i32 0, i32 0, null, i32 256, i1 false, null, null, i32 0, metadata !75, i32 1668} ; [ DW_TAG_subprogram ]
!438 = metadata !{i32 786453, i32 0, metadata !"", i32 0, i32 0, i64 0, i64 0, i64 0, i32 0, null, metadata !439, i32 0, i32 0} ; [ DW_TAG_subroutine_type ]
!439 = metadata !{metadata !123, metadata !409}
!440 = metadata !{i32 786478, i32 0, metadata !279, metadata !"to_uint64", metadata !"to_uint64", metadata !"_ZNK11ap_int_baseILi64ELb0ELb1EE9to_uint64Ev", metadata !63, i32 1669, metadata !441, i1 false, i1 false, i32 0, i32 0, null, i32 256, i1 false, null, null, i32 0, metadata !75, i32 1669} ; [ DW_TAG_subprogram ]
!441 = metadata !{i32 786453, i32 0, metadata !"", i32 0, i32 0, i64 0, i64 0, i64 0, i32 0, null, metadata !442, i32 0, i32 0} ; [ DW_TAG_subroutine_type ]
!442 = metadata !{metadata !128, metadata !409}
!443 = metadata !{i32 786478, i32 0, metadata !279, metadata !"to_double", metadata !"to_double", metadata !"_ZNK11ap_int_baseILi64ELb0ELb1EE9to_doubleEv", metadata !63, i32 1670, metadata !444, i1 false, i1 false, i32 0, i32 0, null, i32 256, i1 false, null, null, i32 0, metadata !75, i32 1670} ; [ DW_TAG_subprogram ]
!444 = metadata !{i32 786453, i32 0, metadata !"", i32 0, i32 0, i64 0, i64 0, i64 0, i32 0, null, metadata !445, i32 0, i32 0} ; [ DW_TAG_subroutine_type ]
!445 = metadata !{metadata !137, metadata !409}
!446 = metadata !{i32 786478, i32 0, metadata !279, metadata !"length", metadata !"length", metadata !"_ZNK11ap_int_baseILi64ELb0ELb1EE6lengthEv", metadata !63, i32 1684, metadata !426, i1 false, i1 false, i32 0, i32 0, null, i32 256, i1 false, null, null, i32 0, metadata !75, i32 1684} ; [ DW_TAG_subprogram ]
!447 = metadata !{i32 786478, i32 0, metadata !279, metadata !"length", metadata !"length", metadata !"_ZNVK11ap_int_baseILi64ELb0ELb1EE6lengthEv", metadata !63, i32 1685, metadata !448, i1 false, i1 false, i32 0, i32 0, null, i32 256, i1 false, null, null, i32 0, metadata !75, i32 1685} ; [ DW_TAG_subprogram ]
!448 = metadata !{i32 786453, i32 0, metadata !"", i32 0, i32 0, i64 0, i64 0, i64 0, i32 0, null, metadata !449, i32 0, i32 0} ; [ DW_TAG_subroutine_type ]
!449 = metadata !{metadata !79, metadata !450}
!450 = metadata !{i32 786447, i32 0, metadata !"", i32 0, i32 0, i64 64, i64 64, i64 0, i32 64, metadata !306} ; [ DW_TAG_pointer_type ]
!451 = metadata !{i32 786478, i32 0, metadata !279, metadata !"reverse", metadata !"reverse", metadata !"_ZN11ap_int_baseILi64ELb0ELb1EE7reverseEv", metadata !63, i32 1690, metadata !452, i1 false, i1 false, i32 0, i32 0, null, i32 256, i1 false, null, null, i32 0, metadata !75, i32 1690} ; [ DW_TAG_subprogram ]
!452 = metadata !{i32 786453, i32 0, metadata !"", i32 0, i32 0, i64 0, i64 0, i64 0, i32 0, null, metadata !453, i32 0, i32 0} ; [ DW_TAG_subroutine_type ]
!453 = metadata !{metadata !367, metadata !295}
!454 = metadata !{i32 786478, i32 0, metadata !279, metadata !"iszero", metadata !"iszero", metadata !"_ZNK11ap_int_baseILi64ELb0ELb1EE6iszeroEv", metadata !63, i32 1696, metadata !411, i1 false, i1 false, i32 0, i32 0, null, i32 256, i1 false, null, null, i32 0, metadata !75, i32 1696} ; [ DW_TAG_subprogram ]
!455 = metadata !{i32 786478, i32 0, metadata !279, metadata !"is_zero", metadata !"is_zero", metadata !"_ZNK11ap_int_baseILi64ELb0ELb1EE7is_zeroEv", metadata !63, i32 1701, metadata !411, i1 false, i1 false, i32 0, i32 0, null, i32 256, i1 false, null, null, i32 0, metadata !75, i32 1701} ; [ DW_TAG_subprogram ]
!456 = metadata !{i32 786478, i32 0, metadata !279, metadata !"sign", metadata !"sign", metadata !"_ZNK11ap_int_baseILi64ELb0ELb1EE4signEv", metadata !63, i32 1706, metadata !411, i1 false, i1 false, i32 0, i32 0, null, i32 256, i1 false, null, null, i32 0, metadata !75, i32 1706} ; [ DW_TAG_subprogram ]
!457 = metadata !{i32 786478, i32 0, metadata !279, metadata !"clear", metadata !"clear", metadata !"_ZN11ap_int_baseILi64ELb0ELb1EE5clearEi", metadata !63, i32 1714, metadata !324, i1 false, i1 false, i32 0, i32 0, null, i32 256, i1 false, null, null, i32 0, metadata !75, i32 1714} ; [ DW_TAG_subprogram ]
!458 = metadata !{i32 786478, i32 0, metadata !279, metadata !"invert", metadata !"invert", metadata !"_ZN11ap_int_baseILi64ELb0ELb1EE6invertEi", metadata !63, i32 1720, metadata !324, i1 false, i1 false, i32 0, i32 0, null, i32 256, i1 false, null, null, i32 0, metadata !75, i32 1720} ; [ DW_TAG_subprogram ]
!459 = metadata !{i32 786478, i32 0, metadata !279, metadata !"test", metadata !"test", metadata !"_ZNK11ap_int_baseILi64ELb0ELb1EE4testEi", metadata !63, i32 1728, metadata !460, i1 false, i1 false, i32 0, i32 0, null, i32 256, i1 false, null, null, i32 0, metadata !75, i32 1728} ; [ DW_TAG_subprogram ]
!460 = metadata !{i32 786453, i32 0, metadata !"", i32 0, i32 0, i64 0, i64 0, i64 0, i32 0, null, metadata !461, i32 0, i32 0} ; [ DW_TAG_subroutine_type ]
!461 = metadata !{metadata !81, metadata !409, metadata !79}
!462 = metadata !{i32 786478, i32 0, metadata !279, metadata !"set", metadata !"set", metadata !"_ZN11ap_int_baseILi64ELb0ELb1EE3setEi", metadata !63, i32 1734, metadata !324, i1 false, i1 false, i32 0, i32 0, null, i32 256, i1 false, null, null, i32 0, metadata !75, i32 1734} ; [ DW_TAG_subprogram ]
!463 = metadata !{i32 786478, i32 0, metadata !279, metadata !"set", metadata !"set", metadata !"_ZN11ap_int_baseILi64ELb0ELb1EE3setEib", metadata !63, i32 1740, metadata !464, i1 false, i1 false, i32 0, i32 0, null, i32 256, i1 false, null, null, i32 0, metadata !75, i32 1740} ; [ DW_TAG_subprogram ]
!464 = metadata !{i32 786453, i32 0, metadata !"", i32 0, i32 0, i64 0, i64 0, i64 0, i32 0, null, metadata !465, i32 0, i32 0} ; [ DW_TAG_subroutine_type ]
!465 = metadata !{null, metadata !295, metadata !79, metadata !81}
!466 = metadata !{i32 786478, i32 0, metadata !279, metadata !"lrotate", metadata !"lrotate", metadata !"_ZN11ap_int_baseILi64ELb0ELb1EE7lrotateEi", metadata !63, i32 1747, metadata !324, i1 false, i1 false, i32 0, i32 0, null, i32 256, i1 false, null, null, i32 0, metadata !75, i32 1747} ; [ DW_TAG_subprogram ]
!467 = metadata !{i32 786478, i32 0, metadata !279, metadata !"rrotate", metadata !"rrotate", metadata !"_ZN11ap_int_baseILi64ELb0ELb1EE7rrotateEi", metadata !63, i32 1756, metadata !324, i1 false, i1 false, i32 0, i32 0, null, i32 256, i1 false, null, null, i32 0, metadata !75, i32 1756} ; [ DW_TAG_subprogram ]
!468 = metadata !{i32 786478, i32 0, metadata !279, metadata !"set_bit", metadata !"set_bit", metadata !"_ZN11ap_int_baseILi64ELb0ELb1EE7set_bitEib", metadata !63, i32 1764, metadata !464, i1 false, i1 false, i32 0, i32 0, null, i32 256, i1 false, null, null, i32 0, metadata !75, i32 1764} ; [ DW_TAG_subprogram ]
!469 = metadata !{i32 786478, i32 0, metadata !279, metadata !"get_bit", metadata !"get_bit", metadata !"_ZNK11ap_int_baseILi64ELb0ELb1EE7get_bitEi", metadata !63, i32 1769, metadata !460, i1 false, i1 false, i32 0, i32 0, null, i32 256, i1 false, null, null, i32 0, metadata !75, i32 1769} ; [ DW_TAG_subprogram ]
!470 = metadata !{i32 786478, i32 0, metadata !279, metadata !"b_not", metadata !"b_not", metadata !"_ZN11ap_int_baseILi64ELb0ELb1EE5b_notEv", metadata !63, i32 1774, metadata !293, i1 false, i1 false, i32 0, i32 0, null, i32 256, i1 false, null, null, i32 0, metadata !75, i32 1774} ; [ DW_TAG_subprogram ]
!471 = metadata !{i32 786478, i32 0, metadata !279, metadata !"countLeadingZeros", metadata !"countLeadingZeros", metadata !"_ZN11ap_int_baseILi64ELb0ELb1EE17countLeadingZerosEv", metadata !63, i32 1781, metadata !472, i1 false, i1 false, i32 0, i32 0, null, i32 256, i1 false, null, null, i32 0, metadata !75, i32 1781} ; [ DW_TAG_subprogram ]
!472 = metadata !{i32 786453, i32 0, metadata !"", i32 0, i32 0, i64 0, i64 0, i64 0, i32 0, null, metadata !473, i32 0, i32 0} ; [ DW_TAG_subroutine_type ]
!473 = metadata !{metadata !79, metadata !295}
!474 = metadata !{i32 786478, i32 0, metadata !279, metadata !"operator++", metadata !"operator++", metadata !"_ZN11ap_int_baseILi64ELb0ELb1EEppEv", metadata !63, i32 1838, metadata !452, i1 false, i1 false, i32 0, i32 0, null, i32 256, i1 false, null, null, i32 0, metadata !75, i32 1838} ; [ DW_TAG_subprogram ]
!475 = metadata !{i32 786478, i32 0, metadata !279, metadata !"operator--", metadata !"operator--", metadata !"_ZN11ap_int_baseILi64ELb0ELb1EEmmEv", metadata !63, i32 1842, metadata !452, i1 false, i1 false, i32 0, i32 0, null, i32 256, i1 false, null, null, i32 0, metadata !75, i32 1842} ; [ DW_TAG_subprogram ]
!476 = metadata !{i32 786478, i32 0, metadata !279, metadata !"operator++", metadata !"operator++", metadata !"_ZN11ap_int_baseILi64ELb0ELb1EEppEi", metadata !63, i32 1850, metadata !477, i1 false, i1 false, i32 0, i32 0, null, i32 256, i1 false, null, null, i32 0, metadata !75, i32 1850} ; [ DW_TAG_subprogram ]
!477 = metadata !{i32 786453, i32 0, metadata !"", i32 0, i32 0, i64 0, i64 0, i64 0, i32 0, null, metadata !478, i32 0, i32 0} ; [ DW_TAG_subroutine_type ]
!478 = metadata !{metadata !278, metadata !295, metadata !79}
!479 = metadata !{i32 786478, i32 0, metadata !279, metadata !"operator--", metadata !"operator--", metadata !"_ZN11ap_int_baseILi64ELb0ELb1EEmmEi", metadata !63, i32 1855, metadata !477, i1 false, i1 false, i32 0, i32 0, null, i32 256, i1 false, null, null, i32 0, metadata !75, i32 1855} ; [ DW_TAG_subprogram ]
!480 = metadata !{i32 786478, i32 0, metadata !279, metadata !"operator+", metadata !"operator+", metadata !"_ZNK11ap_int_baseILi64ELb0ELb1EEpsEv", metadata !63, i32 1864, metadata !481, i1 false, i1 false, i32 0, i32 0, null, i32 256, i1 false, null, null, i32 0, metadata !75, i32 1864} ; [ DW_TAG_subprogram ]
!481 = metadata !{i32 786453, i32 0, metadata !"", i32 0, i32 0, i64 0, i64 0, i64 0, i32 0, null, metadata !482, i32 0, i32 0} ; [ DW_TAG_subroutine_type ]
!482 = metadata !{metadata !279, metadata !409}
!483 = metadata !{i32 786478, i32 0, metadata !279, metadata !"operator!", metadata !"operator!", metadata !"_ZNK11ap_int_baseILi64ELb0ELb1EEntEv", metadata !63, i32 1870, metadata !411, i1 false, i1 false, i32 0, i32 0, null, i32 256, i1 false, null, null, i32 0, metadata !75, i32 1870} ; [ DW_TAG_subprogram ]
!484 = metadata !{i32 786478, i32 0, metadata !279, metadata !"operator-", metadata !"operator-", metadata !"_ZNK11ap_int_baseILi64ELb0ELb1EEngEv", metadata !63, i32 1875, metadata !485, i1 false, i1 false, i32 0, i32 0, null, i32 256, i1 false, null, null, i32 0, metadata !75, i32 1875} ; [ DW_TAG_subprogram ]
!485 = metadata !{i32 786453, i32 0, metadata !"", i32 0, i32 0, i64 0, i64 0, i64 0, i32 0, null, metadata !486, i32 0, i32 0} ; [ DW_TAG_subroutine_type ]
!486 = metadata !{metadata !487, metadata !409}
!487 = metadata !{i32 786434, null, metadata !"ap_int_base<64, true, true>", metadata !63, i32 1397, i64 64, i64 64, i32 0, i32 0, null, metadata !488, i32 0, null, metadata !731} ; [ DW_TAG_class_type ]
!488 = metadata !{metadata !489, metadata !500, metadata !504, metadata !507, metadata !510, metadata !513, metadata !516, metadata !519, metadata !522, metadata !525, metadata !528, metadata !531, metadata !534, metadata !537, metadata !540, metadata !543, metadata !546, metadata !549, metadata !554, metadata !559, metadata !564, metadata !565, metadata !569, metadata !572, metadata !575, metadata !578, metadata !581, metadata !584, metadata !587, metadata !590, metadata !593, metadata !596, metadata !599, metadata !602, metadata !610, metadata !613, metadata !616, metadata !619, metadata !622, metadata !625, metadata !628, metadata !631, metadata !634, metadata !637, metadata !640, metadata !643, metadata !646, metadata !647, metadata !651, metadata !654, metadata !655, metadata !656, metadata !657, metadata !658, metadata !659, metadata !662, metadata !663, metadata !666, metadata !667, metadata !668, metadata !669, metadata !670, metadata !671, metadata !674, metadata !675, metadata !676, metadata !679, metadata !680, metadata !683, metadata !684, metadata !685, metadata !689, metadata !690, metadata !693, metadata !694, metadata !698, metadata !699, metadata !700, metadata !701, metadata !704, metadata !705, metadata !706, metadata !707, metadata !708, metadata !709, metadata !710, metadata !711, metadata !712, metadata !713, metadata !714, metadata !715, metadata !725, metadata !728}
!489 = metadata !{i32 786460, metadata !487, null, metadata !63, i32 0, i64 0, i64 0, i64 0, i32 0, metadata !490} ; [ DW_TAG_inheritance ]
!490 = metadata !{i32 786434, null, metadata !"ssdm_int<64 + 1024 * 0, true>", metadata !67, i32 68, i64 64, i64 64, i32 0, i32 0, null, metadata !491, i32 0, null, metadata !498} ; [ DW_TAG_class_type ]
!491 = metadata !{metadata !492, metadata !494}
!492 = metadata !{i32 786445, metadata !490, metadata !"V", metadata !67, i32 68, i64 64, i64 64, i64 0, i32 0, metadata !493} ; [ DW_TAG_member ]
!493 = metadata !{i32 786468, null, metadata !"int64", null, i32 0, i64 64, i64 64, i64 0, i32 0, i32 5} ; [ DW_TAG_base_type ]
!494 = metadata !{i32 786478, i32 0, metadata !490, metadata !"ssdm_int", metadata !"ssdm_int", metadata !"", metadata !67, i32 68, metadata !495, i1 false, i1 false, i32 0, i32 0, null, i32 256, i1 false, null, null, i32 0, metadata !75, i32 68} ; [ DW_TAG_subprogram ]
!495 = metadata !{i32 786453, i32 0, metadata !"", i32 0, i32 0, i64 0, i64 0, i64 0, i32 0, null, metadata !496, i32 0, i32 0} ; [ DW_TAG_subroutine_type ]
!496 = metadata !{null, metadata !497}
!497 = metadata !{i32 786447, i32 0, metadata !"", i32 0, i32 0, i64 64, i64 64, i64 0, i32 64, metadata !490} ; [ DW_TAG_pointer_type ]
!498 = metadata !{metadata !291, metadata !499}
!499 = metadata !{i32 786480, null, metadata !"_AP_S", metadata !81, i64 1, null, i32 0, i32 0} ; [ DW_TAG_template_value_parameter ]
!500 = metadata !{i32 786478, i32 0, metadata !487, metadata !"ap_int_base", metadata !"ap_int_base", metadata !"", metadata !63, i32 1438, metadata !501, i1 false, i1 false, i32 0, i32 0, null, i32 256, i1 false, null, null, i32 0, metadata !75, i32 1438} ; [ DW_TAG_subprogram ]
!501 = metadata !{i32 786453, i32 0, metadata !"", i32 0, i32 0, i64 0, i64 0, i64 0, i32 0, null, metadata !502, i32 0, i32 0} ; [ DW_TAG_subroutine_type ]
!502 = metadata !{null, metadata !503}
!503 = metadata !{i32 786447, i32 0, metadata !"", i32 0, i32 0, i64 64, i64 64, i64 0, i32 64, metadata !487} ; [ DW_TAG_pointer_type ]
!504 = metadata !{i32 786478, i32 0, metadata !487, metadata !"ap_int_base", metadata !"ap_int_base", metadata !"", metadata !63, i32 1460, metadata !505, i1 false, i1 false, i32 0, i32 0, null, i32 384, i1 false, null, null, i32 0, metadata !75, i32 1460} ; [ DW_TAG_subprogram ]
!505 = metadata !{i32 786453, i32 0, metadata !"", i32 0, i32 0, i64 0, i64 0, i64 0, i32 0, null, metadata !506, i32 0, i32 0} ; [ DW_TAG_subroutine_type ]
!506 = metadata !{null, metadata !503, metadata !81}
!507 = metadata !{i32 786478, i32 0, metadata !487, metadata !"ap_int_base", metadata !"ap_int_base", metadata !"", metadata !63, i32 1461, metadata !508, i1 false, i1 false, i32 0, i32 0, null, i32 384, i1 false, null, null, i32 0, metadata !75, i32 1461} ; [ DW_TAG_subprogram ]
!508 = metadata !{i32 786453, i32 0, metadata !"", i32 0, i32 0, i64 0, i64 0, i64 0, i32 0, null, metadata !509, i32 0, i32 0} ; [ DW_TAG_subroutine_type ]
!509 = metadata !{null, metadata !503, metadata !92}
!510 = metadata !{i32 786478, i32 0, metadata !487, metadata !"ap_int_base", metadata !"ap_int_base", metadata !"", metadata !63, i32 1462, metadata !511, i1 false, i1 false, i32 0, i32 0, null, i32 384, i1 false, null, null, i32 0, metadata !75, i32 1462} ; [ DW_TAG_subprogram ]
!511 = metadata !{i32 786453, i32 0, metadata !"", i32 0, i32 0, i64 0, i64 0, i64 0, i32 0, null, metadata !512, i32 0, i32 0} ; [ DW_TAG_subroutine_type ]
!512 = metadata !{null, metadata !503, metadata !96}
!513 = metadata !{i32 786478, i32 0, metadata !487, metadata !"ap_int_base", metadata !"ap_int_base", metadata !"", metadata !63, i32 1463, metadata !514, i1 false, i1 false, i32 0, i32 0, null, i32 384, i1 false, null, null, i32 0, metadata !75, i32 1463} ; [ DW_TAG_subprogram ]
!514 = metadata !{i32 786453, i32 0, metadata !"", i32 0, i32 0, i64 0, i64 0, i64 0, i32 0, null, metadata !515, i32 0, i32 0} ; [ DW_TAG_subroutine_type ]
!515 = metadata !{null, metadata !503, metadata !100}
!516 = metadata !{i32 786478, i32 0, metadata !487, metadata !"ap_int_base", metadata !"ap_int_base", metadata !"", metadata !63, i32 1464, metadata !517, i1 false, i1 false, i32 0, i32 0, null, i32 384, i1 false, null, null, i32 0, metadata !75, i32 1464} ; [ DW_TAG_subprogram ]
!517 = metadata !{i32 786453, i32 0, metadata !"", i32 0, i32 0, i64 0, i64 0, i64 0, i32 0, null, metadata !518, i32 0, i32 0} ; [ DW_TAG_subroutine_type ]
!518 = metadata !{null, metadata !503, metadata !104}
!519 = metadata !{i32 786478, i32 0, metadata !487, metadata !"ap_int_base", metadata !"ap_int_base", metadata !"", metadata !63, i32 1465, metadata !520, i1 false, i1 false, i32 0, i32 0, null, i32 384, i1 false, null, null, i32 0, metadata !75, i32 1465} ; [ DW_TAG_subprogram ]
!520 = metadata !{i32 786453, i32 0, metadata !"", i32 0, i32 0, i64 0, i64 0, i64 0, i32 0, null, metadata !521, i32 0, i32 0} ; [ DW_TAG_subroutine_type ]
!521 = metadata !{null, metadata !503, metadata !79}
!522 = metadata !{i32 786478, i32 0, metadata !487, metadata !"ap_int_base", metadata !"ap_int_base", metadata !"", metadata !63, i32 1466, metadata !523, i1 false, i1 false, i32 0, i32 0, null, i32 384, i1 false, null, null, i32 0, metadata !75, i32 1466} ; [ DW_TAG_subprogram ]
!523 = metadata !{i32 786453, i32 0, metadata !"", i32 0, i32 0, i64 0, i64 0, i64 0, i32 0, null, metadata !524, i32 0, i32 0} ; [ DW_TAG_subroutine_type ]
!524 = metadata !{null, metadata !503, metadata !111}
!525 = metadata !{i32 786478, i32 0, metadata !487, metadata !"ap_int_base", metadata !"ap_int_base", metadata !"", metadata !63, i32 1467, metadata !526, i1 false, i1 false, i32 0, i32 0, null, i32 384, i1 false, null, null, i32 0, metadata !75, i32 1467} ; [ DW_TAG_subprogram ]
!526 = metadata !{i32 786453, i32 0, metadata !"", i32 0, i32 0, i64 0, i64 0, i64 0, i32 0, null, metadata !527, i32 0, i32 0} ; [ DW_TAG_subroutine_type ]
!527 = metadata !{null, metadata !503, metadata !115}
!528 = metadata !{i32 786478, i32 0, metadata !487, metadata !"ap_int_base", metadata !"ap_int_base", metadata !"", metadata !63, i32 1468, metadata !529, i1 false, i1 false, i32 0, i32 0, null, i32 384, i1 false, null, null, i32 0, metadata !75, i32 1468} ; [ DW_TAG_subprogram ]
!529 = metadata !{i32 786453, i32 0, metadata !"", i32 0, i32 0, i64 0, i64 0, i64 0, i32 0, null, metadata !530, i32 0, i32 0} ; [ DW_TAG_subroutine_type ]
!530 = metadata !{null, metadata !503, metadata !119}
!531 = metadata !{i32 786478, i32 0, metadata !487, metadata !"ap_int_base", metadata !"ap_int_base", metadata !"", metadata !63, i32 1469, metadata !532, i1 false, i1 false, i32 0, i32 0, null, i32 384, i1 false, null, null, i32 0, metadata !75, i32 1469} ; [ DW_TAG_subprogram ]
!532 = metadata !{i32 786453, i32 0, metadata !"", i32 0, i32 0, i64 0, i64 0, i64 0, i32 0, null, metadata !533, i32 0, i32 0} ; [ DW_TAG_subroutine_type ]
!533 = metadata !{null, metadata !503, metadata !123}
!534 = metadata !{i32 786478, i32 0, metadata !487, metadata !"ap_int_base", metadata !"ap_int_base", metadata !"", metadata !63, i32 1470, metadata !535, i1 false, i1 false, i32 0, i32 0, null, i32 384, i1 false, null, null, i32 0, metadata !75, i32 1470} ; [ DW_TAG_subprogram ]
!535 = metadata !{i32 786453, i32 0, metadata !"", i32 0, i32 0, i64 0, i64 0, i64 0, i32 0, null, metadata !536, i32 0, i32 0} ; [ DW_TAG_subroutine_type ]
!536 = metadata !{null, metadata !503, metadata !128}
!537 = metadata !{i32 786478, i32 0, metadata !487, metadata !"ap_int_base", metadata !"ap_int_base", metadata !"", metadata !63, i32 1471, metadata !538, i1 false, i1 false, i32 0, i32 0, null, i32 384, i1 false, null, null, i32 0, metadata !75, i32 1471} ; [ DW_TAG_subprogram ]
!538 = metadata !{i32 786453, i32 0, metadata !"", i32 0, i32 0, i64 0, i64 0, i64 0, i32 0, null, metadata !539, i32 0, i32 0} ; [ DW_TAG_subroutine_type ]
!539 = metadata !{null, metadata !503, metadata !133}
!540 = metadata !{i32 786478, i32 0, metadata !487, metadata !"ap_int_base", metadata !"ap_int_base", metadata !"", metadata !63, i32 1472, metadata !541, i1 false, i1 false, i32 0, i32 0, null, i32 384, i1 false, null, null, i32 0, metadata !75, i32 1472} ; [ DW_TAG_subprogram ]
!541 = metadata !{i32 786453, i32 0, metadata !"", i32 0, i32 0, i64 0, i64 0, i64 0, i32 0, null, metadata !542, i32 0, i32 0} ; [ DW_TAG_subroutine_type ]
!542 = metadata !{null, metadata !503, metadata !137}
!543 = metadata !{i32 786478, i32 0, metadata !487, metadata !"ap_int_base", metadata !"ap_int_base", metadata !"", metadata !63, i32 1499, metadata !544, i1 false, i1 false, i32 0, i32 0, null, i32 256, i1 false, null, null, i32 0, metadata !75, i32 1499} ; [ DW_TAG_subprogram ]
!544 = metadata !{i32 786453, i32 0, metadata !"", i32 0, i32 0, i64 0, i64 0, i64 0, i32 0, null, metadata !545, i32 0, i32 0} ; [ DW_TAG_subroutine_type ]
!545 = metadata !{null, metadata !503, metadata !141}
!546 = metadata !{i32 786478, i32 0, metadata !487, metadata !"ap_int_base", metadata !"ap_int_base", metadata !"", metadata !63, i32 1506, metadata !547, i1 false, i1 false, i32 0, i32 0, null, i32 256, i1 false, null, null, i32 0, metadata !75, i32 1506} ; [ DW_TAG_subprogram ]
!547 = metadata !{i32 786453, i32 0, metadata !"", i32 0, i32 0, i64 0, i64 0, i64 0, i32 0, null, metadata !548, i32 0, i32 0} ; [ DW_TAG_subroutine_type ]
!548 = metadata !{null, metadata !503, metadata !141, metadata !92}
!549 = metadata !{i32 786478, i32 0, metadata !487, metadata !"read", metadata !"read", metadata !"_ZNV11ap_int_baseILi64ELb1ELb1EE4readEv", metadata !63, i32 1527, metadata !550, i1 false, i1 false, i32 0, i32 0, null, i32 256, i1 false, null, null, i32 0, metadata !75, i32 1527} ; [ DW_TAG_subprogram ]
!550 = metadata !{i32 786453, i32 0, metadata !"", i32 0, i32 0, i64 0, i64 0, i64 0, i32 0, null, metadata !551, i32 0, i32 0} ; [ DW_TAG_subroutine_type ]
!551 = metadata !{metadata !487, metadata !552}
!552 = metadata !{i32 786447, i32 0, metadata !"", i32 0, i32 0, i64 64, i64 64, i64 0, i32 64, metadata !553} ; [ DW_TAG_pointer_type ]
!553 = metadata !{i32 786485, null, metadata !"", null, i32 0, i64 0, i64 0, i64 0, i32 0, metadata !487} ; [ DW_TAG_volatile_type ]
!554 = metadata !{i32 786478, i32 0, metadata !487, metadata !"write", metadata !"write", metadata !"_ZNV11ap_int_baseILi64ELb1ELb1EE5writeERKS0_", metadata !63, i32 1533, metadata !555, i1 false, i1 false, i32 0, i32 0, null, i32 256, i1 false, null, null, i32 0, metadata !75, i32 1533} ; [ DW_TAG_subprogram ]
!555 = metadata !{i32 786453, i32 0, metadata !"", i32 0, i32 0, i64 0, i64 0, i64 0, i32 0, null, metadata !556, i32 0, i32 0} ; [ DW_TAG_subroutine_type ]
!556 = metadata !{null, metadata !552, metadata !557}
!557 = metadata !{i32 786448, null, null, null, i32 0, i64 0, i64 0, i64 0, i32 0, metadata !558} ; [ DW_TAG_reference_type ]
!558 = metadata !{i32 786470, null, metadata !"", null, i32 0, i64 0, i64 0, i64 0, i32 0, metadata !487} ; [ DW_TAG_const_type ]
!559 = metadata !{i32 786478, i32 0, metadata !487, metadata !"operator=", metadata !"operator=", metadata !"_ZNV11ap_int_baseILi64ELb1ELb1EEaSERVKS0_", metadata !63, i32 1545, metadata !560, i1 false, i1 false, i32 0, i32 0, null, i32 256, i1 false, null, null, i32 0, metadata !75, i32 1545} ; [ DW_TAG_subprogram ]
!560 = metadata !{i32 786453, i32 0, metadata !"", i32 0, i32 0, i64 0, i64 0, i64 0, i32 0, null, metadata !561, i32 0, i32 0} ; [ DW_TAG_subroutine_type ]
!561 = metadata !{null, metadata !552, metadata !562}
!562 = metadata !{i32 786448, null, null, null, i32 0, i64 0, i64 0, i64 0, i32 0, metadata !563} ; [ DW_TAG_reference_type ]
!563 = metadata !{i32 786470, null, metadata !"", null, i32 0, i64 0, i64 0, i64 0, i32 0, metadata !553} ; [ DW_TAG_const_type ]
!564 = metadata !{i32 786478, i32 0, metadata !487, metadata !"operator=", metadata !"operator=", metadata !"_ZNV11ap_int_baseILi64ELb1ELb1EEaSERKS0_", metadata !63, i32 1554, metadata !555, i1 false, i1 false, i32 0, i32 0, null, i32 256, i1 false, null, null, i32 0, metadata !75, i32 1554} ; [ DW_TAG_subprogram ]
!565 = metadata !{i32 786478, i32 0, metadata !487, metadata !"operator=", metadata !"operator=", metadata !"_ZN11ap_int_baseILi64ELb1ELb1EEaSERVKS0_", metadata !63, i32 1577, metadata !566, i1 false, i1 false, i32 0, i32 0, null, i32 256, i1 false, null, null, i32 0, metadata !75, i32 1577} ; [ DW_TAG_subprogram ]
!566 = metadata !{i32 786453, i32 0, metadata !"", i32 0, i32 0, i64 0, i64 0, i64 0, i32 0, null, metadata !567, i32 0, i32 0} ; [ DW_TAG_subroutine_type ]
!567 = metadata !{metadata !568, metadata !503, metadata !562}
!568 = metadata !{i32 786448, null, null, null, i32 0, i64 0, i64 0, i64 0, i32 0, metadata !487} ; [ DW_TAG_reference_type ]
!569 = metadata !{i32 786478, i32 0, metadata !487, metadata !"operator=", metadata !"operator=", metadata !"_ZN11ap_int_baseILi64ELb1ELb1EEaSERKS0_", metadata !63, i32 1582, metadata !570, i1 false, i1 false, i32 0, i32 0, null, i32 256, i1 false, null, null, i32 0, metadata !75, i32 1582} ; [ DW_TAG_subprogram ]
!570 = metadata !{i32 786453, i32 0, metadata !"", i32 0, i32 0, i64 0, i64 0, i64 0, i32 0, null, metadata !571, i32 0, i32 0} ; [ DW_TAG_subroutine_type ]
!571 = metadata !{metadata !568, metadata !503, metadata !557}
!572 = metadata !{i32 786478, i32 0, metadata !487, metadata !"operator=", metadata !"operator=", metadata !"_ZN11ap_int_baseILi64ELb1ELb1EEaSEPKc", metadata !63, i32 1586, metadata !573, i1 false, i1 false, i32 0, i32 0, null, i32 256, i1 false, null, null, i32 0, metadata !75, i32 1586} ; [ DW_TAG_subprogram ]
!573 = metadata !{i32 786453, i32 0, metadata !"", i32 0, i32 0, i64 0, i64 0, i64 0, i32 0, null, metadata !574, i32 0, i32 0} ; [ DW_TAG_subroutine_type ]
!574 = metadata !{metadata !568, metadata !503, metadata !141}
!575 = metadata !{i32 786478, i32 0, metadata !487, metadata !"set", metadata !"set", metadata !"_ZN11ap_int_baseILi64ELb1ELb1EE3setEPKca", metadata !63, i32 1594, metadata !576, i1 false, i1 false, i32 0, i32 0, null, i32 256, i1 false, null, null, i32 0, metadata !75, i32 1594} ; [ DW_TAG_subprogram ]
!576 = metadata !{i32 786453, i32 0, metadata !"", i32 0, i32 0, i64 0, i64 0, i64 0, i32 0, null, metadata !577, i32 0, i32 0} ; [ DW_TAG_subroutine_type ]
!577 = metadata !{metadata !568, metadata !503, metadata !141, metadata !92}
!578 = metadata !{i32 786478, i32 0, metadata !487, metadata !"operator=", metadata !"operator=", metadata !"_ZN11ap_int_baseILi64ELb1ELb1EEaSEa", metadata !63, i32 1608, metadata !579, i1 false, i1 false, i32 0, i32 0, null, i32 256, i1 false, null, null, i32 0, metadata !75, i32 1608} ; [ DW_TAG_subprogram ]
!579 = metadata !{i32 786453, i32 0, metadata !"", i32 0, i32 0, i64 0, i64 0, i64 0, i32 0, null, metadata !580, i32 0, i32 0} ; [ DW_TAG_subroutine_type ]
!580 = metadata !{metadata !568, metadata !503, metadata !92}
!581 = metadata !{i32 786478, i32 0, metadata !487, metadata !"operator=", metadata !"operator=", metadata !"_ZN11ap_int_baseILi64ELb1ELb1EEaSEh", metadata !63, i32 1609, metadata !582, i1 false, i1 false, i32 0, i32 0, null, i32 256, i1 false, null, null, i32 0, metadata !75, i32 1609} ; [ DW_TAG_subprogram ]
!582 = metadata !{i32 786453, i32 0, metadata !"", i32 0, i32 0, i64 0, i64 0, i64 0, i32 0, null, metadata !583, i32 0, i32 0} ; [ DW_TAG_subroutine_type ]
!583 = metadata !{metadata !568, metadata !503, metadata !96}
!584 = metadata !{i32 786478, i32 0, metadata !487, metadata !"operator=", metadata !"operator=", metadata !"_ZN11ap_int_baseILi64ELb1ELb1EEaSEs", metadata !63, i32 1610, metadata !585, i1 false, i1 false, i32 0, i32 0, null, i32 256, i1 false, null, null, i32 0, metadata !75, i32 1610} ; [ DW_TAG_subprogram ]
!585 = metadata !{i32 786453, i32 0, metadata !"", i32 0, i32 0, i64 0, i64 0, i64 0, i32 0, null, metadata !586, i32 0, i32 0} ; [ DW_TAG_subroutine_type ]
!586 = metadata !{metadata !568, metadata !503, metadata !100}
!587 = metadata !{i32 786478, i32 0, metadata !487, metadata !"operator=", metadata !"operator=", metadata !"_ZN11ap_int_baseILi64ELb1ELb1EEaSEt", metadata !63, i32 1611, metadata !588, i1 false, i1 false, i32 0, i32 0, null, i32 256, i1 false, null, null, i32 0, metadata !75, i32 1611} ; [ DW_TAG_subprogram ]
!588 = metadata !{i32 786453, i32 0, metadata !"", i32 0, i32 0, i64 0, i64 0, i64 0, i32 0, null, metadata !589, i32 0, i32 0} ; [ DW_TAG_subroutine_type ]
!589 = metadata !{metadata !568, metadata !503, metadata !104}
!590 = metadata !{i32 786478, i32 0, metadata !487, metadata !"operator=", metadata !"operator=", metadata !"_ZN11ap_int_baseILi64ELb1ELb1EEaSEi", metadata !63, i32 1612, metadata !591, i1 false, i1 false, i32 0, i32 0, null, i32 256, i1 false, null, null, i32 0, metadata !75, i32 1612} ; [ DW_TAG_subprogram ]
!591 = metadata !{i32 786453, i32 0, metadata !"", i32 0, i32 0, i64 0, i64 0, i64 0, i32 0, null, metadata !592, i32 0, i32 0} ; [ DW_TAG_subroutine_type ]
!592 = metadata !{metadata !568, metadata !503, metadata !79}
!593 = metadata !{i32 786478, i32 0, metadata !487, metadata !"operator=", metadata !"operator=", metadata !"_ZN11ap_int_baseILi64ELb1ELb1EEaSEj", metadata !63, i32 1613, metadata !594, i1 false, i1 false, i32 0, i32 0, null, i32 256, i1 false, null, null, i32 0, metadata !75, i32 1613} ; [ DW_TAG_subprogram ]
!594 = metadata !{i32 786453, i32 0, metadata !"", i32 0, i32 0, i64 0, i64 0, i64 0, i32 0, null, metadata !595, i32 0, i32 0} ; [ DW_TAG_subroutine_type ]
!595 = metadata !{metadata !568, metadata !503, metadata !111}
!596 = metadata !{i32 786478, i32 0, metadata !487, metadata !"operator=", metadata !"operator=", metadata !"_ZN11ap_int_baseILi64ELb1ELb1EEaSEx", metadata !63, i32 1614, metadata !597, i1 false, i1 false, i32 0, i32 0, null, i32 256, i1 false, null, null, i32 0, metadata !75, i32 1614} ; [ DW_TAG_subprogram ]
!597 = metadata !{i32 786453, i32 0, metadata !"", i32 0, i32 0, i64 0, i64 0, i64 0, i32 0, null, metadata !598, i32 0, i32 0} ; [ DW_TAG_subroutine_type ]
!598 = metadata !{metadata !568, metadata !503, metadata !123}
!599 = metadata !{i32 786478, i32 0, metadata !487, metadata !"operator=", metadata !"operator=", metadata !"_ZN11ap_int_baseILi64ELb1ELb1EEaSEy", metadata !63, i32 1615, metadata !600, i1 false, i1 false, i32 0, i32 0, null, i32 256, i1 false, null, null, i32 0, metadata !75, i32 1615} ; [ DW_TAG_subprogram ]
!600 = metadata !{i32 786453, i32 0, metadata !"", i32 0, i32 0, i64 0, i64 0, i64 0, i32 0, null, metadata !601, i32 0, i32 0} ; [ DW_TAG_subroutine_type ]
!601 = metadata !{metadata !568, metadata !503, metadata !128}
!602 = metadata !{i32 786478, i32 0, metadata !487, metadata !"operator long long", metadata !"operator long long", metadata !"_ZNK11ap_int_baseILi64ELb1ELb1EEcvxEv", metadata !63, i32 1653, metadata !603, i1 false, i1 false, i32 0, i32 0, null, i32 256, i1 false, null, null, i32 0, metadata !75, i32 1653} ; [ DW_TAG_subprogram ]
!603 = metadata !{i32 786453, i32 0, metadata !"", i32 0, i32 0, i64 0, i64 0, i64 0, i32 0, null, metadata !604, i32 0, i32 0} ; [ DW_TAG_subroutine_type ]
!604 = metadata !{metadata !605, metadata !609}
!605 = metadata !{i32 786454, metadata !487, metadata !"RetType", metadata !63, i32 1402, i64 0, i64 0, i64 0, i32 0, metadata !606} ; [ DW_TAG_typedef ]
!606 = metadata !{i32 786454, metadata !607, metadata !"Type", metadata !63, i32 1359, i64 0, i64 0, i64 0, i32 0, metadata !123} ; [ DW_TAG_typedef ]
!607 = metadata !{i32 786434, null, metadata !"retval<8, true>", metadata !63, i32 1358, i64 8, i64 8, i32 0, i32 0, null, metadata !206, i32 0, null, metadata !608} ; [ DW_TAG_class_type ]
!608 = metadata !{metadata !408, metadata !499}
!609 = metadata !{i32 786447, i32 0, metadata !"", i32 0, i32 0, i64 64, i64 64, i64 0, i32 64, metadata !558} ; [ DW_TAG_pointer_type ]
!610 = metadata !{i32 786478, i32 0, metadata !487, metadata !"to_bool", metadata !"to_bool", metadata !"_ZNK11ap_int_baseILi64ELb1ELb1EE7to_boolEv", metadata !63, i32 1659, metadata !611, i1 false, i1 false, i32 0, i32 0, null, i32 256, i1 false, null, null, i32 0, metadata !75, i32 1659} ; [ DW_TAG_subprogram ]
!611 = metadata !{i32 786453, i32 0, metadata !"", i32 0, i32 0, i64 0, i64 0, i64 0, i32 0, null, metadata !612, i32 0, i32 0} ; [ DW_TAG_subroutine_type ]
!612 = metadata !{metadata !81, metadata !609}
!613 = metadata !{i32 786478, i32 0, metadata !487, metadata !"to_uchar", metadata !"to_uchar", metadata !"_ZNK11ap_int_baseILi64ELb1ELb1EE8to_ucharEv", metadata !63, i32 1660, metadata !614, i1 false, i1 false, i32 0, i32 0, null, i32 256, i1 false, null, null, i32 0, metadata !75, i32 1660} ; [ DW_TAG_subprogram ]
!614 = metadata !{i32 786453, i32 0, metadata !"", i32 0, i32 0, i64 0, i64 0, i64 0, i32 0, null, metadata !615, i32 0, i32 0} ; [ DW_TAG_subroutine_type ]
!615 = metadata !{metadata !96, metadata !609}
!616 = metadata !{i32 786478, i32 0, metadata !487, metadata !"to_char", metadata !"to_char", metadata !"_ZNK11ap_int_baseILi64ELb1ELb1EE7to_charEv", metadata !63, i32 1661, metadata !617, i1 false, i1 false, i32 0, i32 0, null, i32 256, i1 false, null, null, i32 0, metadata !75, i32 1661} ; [ DW_TAG_subprogram ]
!617 = metadata !{i32 786453, i32 0, metadata !"", i32 0, i32 0, i64 0, i64 0, i64 0, i32 0, null, metadata !618, i32 0, i32 0} ; [ DW_TAG_subroutine_type ]
!618 = metadata !{metadata !92, metadata !609}
!619 = metadata !{i32 786478, i32 0, metadata !487, metadata !"to_ushort", metadata !"to_ushort", metadata !"_ZNK11ap_int_baseILi64ELb1ELb1EE9to_ushortEv", metadata !63, i32 1662, metadata !620, i1 false, i1 false, i32 0, i32 0, null, i32 256, i1 false, null, null, i32 0, metadata !75, i32 1662} ; [ DW_TAG_subprogram ]
!620 = metadata !{i32 786453, i32 0, metadata !"", i32 0, i32 0, i64 0, i64 0, i64 0, i32 0, null, metadata !621, i32 0, i32 0} ; [ DW_TAG_subroutine_type ]
!621 = metadata !{metadata !104, metadata !609}
!622 = metadata !{i32 786478, i32 0, metadata !487, metadata !"to_short", metadata !"to_short", metadata !"_ZNK11ap_int_baseILi64ELb1ELb1EE8to_shortEv", metadata !63, i32 1663, metadata !623, i1 false, i1 false, i32 0, i32 0, null, i32 256, i1 false, null, null, i32 0, metadata !75, i32 1663} ; [ DW_TAG_subprogram ]
!623 = metadata !{i32 786453, i32 0, metadata !"", i32 0, i32 0, i64 0, i64 0, i64 0, i32 0, null, metadata !624, i32 0, i32 0} ; [ DW_TAG_subroutine_type ]
!624 = metadata !{metadata !100, metadata !609}
!625 = metadata !{i32 786478, i32 0, metadata !487, metadata !"to_int", metadata !"to_int", metadata !"_ZNK11ap_int_baseILi64ELb1ELb1EE6to_intEv", metadata !63, i32 1664, metadata !626, i1 false, i1 false, i32 0, i32 0, null, i32 256, i1 false, null, null, i32 0, metadata !75, i32 1664} ; [ DW_TAG_subprogram ]
!626 = metadata !{i32 786453, i32 0, metadata !"", i32 0, i32 0, i64 0, i64 0, i64 0, i32 0, null, metadata !627, i32 0, i32 0} ; [ DW_TAG_subroutine_type ]
!627 = metadata !{metadata !79, metadata !609}
!628 = metadata !{i32 786478, i32 0, metadata !487, metadata !"to_uint", metadata !"to_uint", metadata !"_ZNK11ap_int_baseILi64ELb1ELb1EE7to_uintEv", metadata !63, i32 1665, metadata !629, i1 false, i1 false, i32 0, i32 0, null, i32 256, i1 false, null, null, i32 0, metadata !75, i32 1665} ; [ DW_TAG_subprogram ]
!629 = metadata !{i32 786453, i32 0, metadata !"", i32 0, i32 0, i64 0, i64 0, i64 0, i32 0, null, metadata !630, i32 0, i32 0} ; [ DW_TAG_subroutine_type ]
!630 = metadata !{metadata !111, metadata !609}
!631 = metadata !{i32 786478, i32 0, metadata !487, metadata !"to_long", metadata !"to_long", metadata !"_ZNK11ap_int_baseILi64ELb1ELb1EE7to_longEv", metadata !63, i32 1666, metadata !632, i1 false, i1 false, i32 0, i32 0, null, i32 256, i1 false, null, null, i32 0, metadata !75, i32 1666} ; [ DW_TAG_subprogram ]
!632 = metadata !{i32 786453, i32 0, metadata !"", i32 0, i32 0, i64 0, i64 0, i64 0, i32 0, null, metadata !633, i32 0, i32 0} ; [ DW_TAG_subroutine_type ]
!633 = metadata !{metadata !115, metadata !609}
!634 = metadata !{i32 786478, i32 0, metadata !487, metadata !"to_ulong", metadata !"to_ulong", metadata !"_ZNK11ap_int_baseILi64ELb1ELb1EE8to_ulongEv", metadata !63, i32 1667, metadata !635, i1 false, i1 false, i32 0, i32 0, null, i32 256, i1 false, null, null, i32 0, metadata !75, i32 1667} ; [ DW_TAG_subprogram ]
!635 = metadata !{i32 786453, i32 0, metadata !"", i32 0, i32 0, i64 0, i64 0, i64 0, i32 0, null, metadata !636, i32 0, i32 0} ; [ DW_TAG_subroutine_type ]
!636 = metadata !{metadata !119, metadata !609}
!637 = metadata !{i32 786478, i32 0, metadata !487, metadata !"to_int64", metadata !"to_int64", metadata !"_ZNK11ap_int_baseILi64ELb1ELb1EE8to_int64Ev", metadata !63, i32 1668, metadata !638, i1 false, i1 false, i32 0, i32 0, null, i32 256, i1 false, null, null, i32 0, metadata !75, i32 1668} ; [ DW_TAG_subprogram ]
!638 = metadata !{i32 786453, i32 0, metadata !"", i32 0, i32 0, i64 0, i64 0, i64 0, i32 0, null, metadata !639, i32 0, i32 0} ; [ DW_TAG_subroutine_type ]
!639 = metadata !{metadata !123, metadata !609}
!640 = metadata !{i32 786478, i32 0, metadata !487, metadata !"to_uint64", metadata !"to_uint64", metadata !"_ZNK11ap_int_baseILi64ELb1ELb1EE9to_uint64Ev", metadata !63, i32 1669, metadata !641, i1 false, i1 false, i32 0, i32 0, null, i32 256, i1 false, null, null, i32 0, metadata !75, i32 1669} ; [ DW_TAG_subprogram ]
!641 = metadata !{i32 786453, i32 0, metadata !"", i32 0, i32 0, i64 0, i64 0, i64 0, i32 0, null, metadata !642, i32 0, i32 0} ; [ DW_TAG_subroutine_type ]
!642 = metadata !{metadata !128, metadata !609}
!643 = metadata !{i32 786478, i32 0, metadata !487, metadata !"to_double", metadata !"to_double", metadata !"_ZNK11ap_int_baseILi64ELb1ELb1EE9to_doubleEv", metadata !63, i32 1670, metadata !644, i1 false, i1 false, i32 0, i32 0, null, i32 256, i1 false, null, null, i32 0, metadata !75, i32 1670} ; [ DW_TAG_subprogram ]
!644 = metadata !{i32 786453, i32 0, metadata !"", i32 0, i32 0, i64 0, i64 0, i64 0, i32 0, null, metadata !645, i32 0, i32 0} ; [ DW_TAG_subroutine_type ]
!645 = metadata !{metadata !137, metadata !609}
!646 = metadata !{i32 786478, i32 0, metadata !487, metadata !"length", metadata !"length", metadata !"_ZNK11ap_int_baseILi64ELb1ELb1EE6lengthEv", metadata !63, i32 1684, metadata !626, i1 false, i1 false, i32 0, i32 0, null, i32 256, i1 false, null, null, i32 0, metadata !75, i32 1684} ; [ DW_TAG_subprogram ]
!647 = metadata !{i32 786478, i32 0, metadata !487, metadata !"length", metadata !"length", metadata !"_ZNVK11ap_int_baseILi64ELb1ELb1EE6lengthEv", metadata !63, i32 1685, metadata !648, i1 false, i1 false, i32 0, i32 0, null, i32 256, i1 false, null, null, i32 0, metadata !75, i32 1685} ; [ DW_TAG_subprogram ]
!648 = metadata !{i32 786453, i32 0, metadata !"", i32 0, i32 0, i64 0, i64 0, i64 0, i32 0, null, metadata !649, i32 0, i32 0} ; [ DW_TAG_subroutine_type ]
!649 = metadata !{metadata !79, metadata !650}
!650 = metadata !{i32 786447, i32 0, metadata !"", i32 0, i32 0, i64 64, i64 64, i64 0, i32 64, metadata !563} ; [ DW_TAG_pointer_type ]
!651 = metadata !{i32 786478, i32 0, metadata !487, metadata !"reverse", metadata !"reverse", metadata !"_ZN11ap_int_baseILi64ELb1ELb1EE7reverseEv", metadata !63, i32 1690, metadata !652, i1 false, i1 false, i32 0, i32 0, null, i32 256, i1 false, null, null, i32 0, metadata !75, i32 1690} ; [ DW_TAG_subprogram ]
!652 = metadata !{i32 786453, i32 0, metadata !"", i32 0, i32 0, i64 0, i64 0, i64 0, i32 0, null, metadata !653, i32 0, i32 0} ; [ DW_TAG_subroutine_type ]
!653 = metadata !{metadata !568, metadata !503}
!654 = metadata !{i32 786478, i32 0, metadata !487, metadata !"iszero", metadata !"iszero", metadata !"_ZNK11ap_int_baseILi64ELb1ELb1EE6iszeroEv", metadata !63, i32 1696, metadata !611, i1 false, i1 false, i32 0, i32 0, null, i32 256, i1 false, null, null, i32 0, metadata !75, i32 1696} ; [ DW_TAG_subprogram ]
!655 = metadata !{i32 786478, i32 0, metadata !487, metadata !"is_zero", metadata !"is_zero", metadata !"_ZNK11ap_int_baseILi64ELb1ELb1EE7is_zeroEv", metadata !63, i32 1701, metadata !611, i1 false, i1 false, i32 0, i32 0, null, i32 256, i1 false, null, null, i32 0, metadata !75, i32 1701} ; [ DW_TAG_subprogram ]
!656 = metadata !{i32 786478, i32 0, metadata !487, metadata !"sign", metadata !"sign", metadata !"_ZNK11ap_int_baseILi64ELb1ELb1EE4signEv", metadata !63, i32 1706, metadata !611, i1 false, i1 false, i32 0, i32 0, null, i32 256, i1 false, null, null, i32 0, metadata !75, i32 1706} ; [ DW_TAG_subprogram ]
!657 = metadata !{i32 786478, i32 0, metadata !487, metadata !"clear", metadata !"clear", metadata !"_ZN11ap_int_baseILi64ELb1ELb1EE5clearEi", metadata !63, i32 1714, metadata !520, i1 false, i1 false, i32 0, i32 0, null, i32 256, i1 false, null, null, i32 0, metadata !75, i32 1714} ; [ DW_TAG_subprogram ]
!658 = metadata !{i32 786478, i32 0, metadata !487, metadata !"invert", metadata !"invert", metadata !"_ZN11ap_int_baseILi64ELb1ELb1EE6invertEi", metadata !63, i32 1720, metadata !520, i1 false, i1 false, i32 0, i32 0, null, i32 256, i1 false, null, null, i32 0, metadata !75, i32 1720} ; [ DW_TAG_subprogram ]
!659 = metadata !{i32 786478, i32 0, metadata !487, metadata !"test", metadata !"test", metadata !"_ZNK11ap_int_baseILi64ELb1ELb1EE4testEi", metadata !63, i32 1728, metadata !660, i1 false, i1 false, i32 0, i32 0, null, i32 256, i1 false, null, null, i32 0, metadata !75, i32 1728} ; [ DW_TAG_subprogram ]
!660 = metadata !{i32 786453, i32 0, metadata !"", i32 0, i32 0, i64 0, i64 0, i64 0, i32 0, null, metadata !661, i32 0, i32 0} ; [ DW_TAG_subroutine_type ]
!661 = metadata !{metadata !81, metadata !609, metadata !79}
!662 = metadata !{i32 786478, i32 0, metadata !487, metadata !"set", metadata !"set", metadata !"_ZN11ap_int_baseILi64ELb1ELb1EE3setEi", metadata !63, i32 1734, metadata !520, i1 false, i1 false, i32 0, i32 0, null, i32 256, i1 false, null, null, i32 0, metadata !75, i32 1734} ; [ DW_TAG_subprogram ]
!663 = metadata !{i32 786478, i32 0, metadata !487, metadata !"set", metadata !"set", metadata !"_ZN11ap_int_baseILi64ELb1ELb1EE3setEib", metadata !63, i32 1740, metadata !664, i1 false, i1 false, i32 0, i32 0, null, i32 256, i1 false, null, null, i32 0, metadata !75, i32 1740} ; [ DW_TAG_subprogram ]
!664 = metadata !{i32 786453, i32 0, metadata !"", i32 0, i32 0, i64 0, i64 0, i64 0, i32 0, null, metadata !665, i32 0, i32 0} ; [ DW_TAG_subroutine_type ]
!665 = metadata !{null, metadata !503, metadata !79, metadata !81}
!666 = metadata !{i32 786478, i32 0, metadata !487, metadata !"lrotate", metadata !"lrotate", metadata !"_ZN11ap_int_baseILi64ELb1ELb1EE7lrotateEi", metadata !63, i32 1747, metadata !520, i1 false, i1 false, i32 0, i32 0, null, i32 256, i1 false, null, null, i32 0, metadata !75, i32 1747} ; [ DW_TAG_subprogram ]
!667 = metadata !{i32 786478, i32 0, metadata !487, metadata !"rrotate", metadata !"rrotate", metadata !"_ZN11ap_int_baseILi64ELb1ELb1EE7rrotateEi", metadata !63, i32 1756, metadata !520, i1 false, i1 false, i32 0, i32 0, null, i32 256, i1 false, null, null, i32 0, metadata !75, i32 1756} ; [ DW_TAG_subprogram ]
!668 = metadata !{i32 786478, i32 0, metadata !487, metadata !"set_bit", metadata !"set_bit", metadata !"_ZN11ap_int_baseILi64ELb1ELb1EE7set_bitEib", metadata !63, i32 1764, metadata !664, i1 false, i1 false, i32 0, i32 0, null, i32 256, i1 false, null, null, i32 0, metadata !75, i32 1764} ; [ DW_TAG_subprogram ]
!669 = metadata !{i32 786478, i32 0, metadata !487, metadata !"get_bit", metadata !"get_bit", metadata !"_ZNK11ap_int_baseILi64ELb1ELb1EE7get_bitEi", metadata !63, i32 1769, metadata !660, i1 false, i1 false, i32 0, i32 0, null, i32 256, i1 false, null, null, i32 0, metadata !75, i32 1769} ; [ DW_TAG_subprogram ]
!670 = metadata !{i32 786478, i32 0, metadata !487, metadata !"b_not", metadata !"b_not", metadata !"_ZN11ap_int_baseILi64ELb1ELb1EE5b_notEv", metadata !63, i32 1774, metadata !501, i1 false, i1 false, i32 0, i32 0, null, i32 256, i1 false, null, null, i32 0, metadata !75, i32 1774} ; [ DW_TAG_subprogram ]
!671 = metadata !{i32 786478, i32 0, metadata !487, metadata !"countLeadingZeros", metadata !"countLeadingZeros", metadata !"_ZN11ap_int_baseILi64ELb1ELb1EE17countLeadingZerosEv", metadata !63, i32 1781, metadata !672, i1 false, i1 false, i32 0, i32 0, null, i32 256, i1 false, null, null, i32 0, metadata !75, i32 1781} ; [ DW_TAG_subprogram ]
!672 = metadata !{i32 786453, i32 0, metadata !"", i32 0, i32 0, i64 0, i64 0, i64 0, i32 0, null, metadata !673, i32 0, i32 0} ; [ DW_TAG_subroutine_type ]
!673 = metadata !{metadata !79, metadata !503}
!674 = metadata !{i32 786478, i32 0, metadata !487, metadata !"operator++", metadata !"operator++", metadata !"_ZN11ap_int_baseILi64ELb1ELb1EEppEv", metadata !63, i32 1838, metadata !652, i1 false, i1 false, i32 0, i32 0, null, i32 256, i1 false, null, null, i32 0, metadata !75, i32 1838} ; [ DW_TAG_subprogram ]
!675 = metadata !{i32 786478, i32 0, metadata !487, metadata !"operator--", metadata !"operator--", metadata !"_ZN11ap_int_baseILi64ELb1ELb1EEmmEv", metadata !63, i32 1842, metadata !652, i1 false, i1 false, i32 0, i32 0, null, i32 256, i1 false, null, null, i32 0, metadata !75, i32 1842} ; [ DW_TAG_subprogram ]
!676 = metadata !{i32 786478, i32 0, metadata !487, metadata !"operator++", metadata !"operator++", metadata !"_ZN11ap_int_baseILi64ELb1ELb1EEppEi", metadata !63, i32 1850, metadata !677, i1 false, i1 false, i32 0, i32 0, null, i32 256, i1 false, null, null, i32 0, metadata !75, i32 1850} ; [ DW_TAG_subprogram ]
!677 = metadata !{i32 786453, i32 0, metadata !"", i32 0, i32 0, i64 0, i64 0, i64 0, i32 0, null, metadata !678, i32 0, i32 0} ; [ DW_TAG_subroutine_type ]
!678 = metadata !{metadata !558, metadata !503, metadata !79}
!679 = metadata !{i32 786478, i32 0, metadata !487, metadata !"operator--", metadata !"operator--", metadata !"_ZN11ap_int_baseILi64ELb1ELb1EEmmEi", metadata !63, i32 1855, metadata !677, i1 false, i1 false, i32 0, i32 0, null, i32 256, i1 false, null, null, i32 0, metadata !75, i32 1855} ; [ DW_TAG_subprogram ]
!680 = metadata !{i32 786478, i32 0, metadata !487, metadata !"operator+", metadata !"operator+", metadata !"_ZNK11ap_int_baseILi64ELb1ELb1EEpsEv", metadata !63, i32 1864, metadata !681, i1 false, i1 false, i32 0, i32 0, null, i32 256, i1 false, null, null, i32 0, metadata !75, i32 1864} ; [ DW_TAG_subprogram ]
!681 = metadata !{i32 786453, i32 0, metadata !"", i32 0, i32 0, i64 0, i64 0, i64 0, i32 0, null, metadata !682, i32 0, i32 0} ; [ DW_TAG_subroutine_type ]
!682 = metadata !{metadata !487, metadata !609}
!683 = metadata !{i32 786478, i32 0, metadata !487, metadata !"operator!", metadata !"operator!", metadata !"_ZNK11ap_int_baseILi64ELb1ELb1EEntEv", metadata !63, i32 1870, metadata !611, i1 false, i1 false, i32 0, i32 0, null, i32 256, i1 false, null, null, i32 0, metadata !75, i32 1870} ; [ DW_TAG_subprogram ]
!684 = metadata !{i32 786478, i32 0, metadata !487, metadata !"operator-", metadata !"operator-", metadata !"_ZNK11ap_int_baseILi64ELb1ELb1EEngEv", metadata !63, i32 1875, metadata !681, i1 false, i1 false, i32 0, i32 0, null, i32 256, i1 false, null, null, i32 0, metadata !75, i32 1875} ; [ DW_TAG_subprogram ]
!685 = metadata !{i32 786478, i32 0, metadata !487, metadata !"range", metadata !"range", metadata !"_ZN11ap_int_baseILi64ELb1ELb1EE5rangeEii", metadata !63, i32 2005, metadata !686, i1 false, i1 false, i32 0, i32 0, null, i32 256, i1 false, null, null, i32 0, metadata !75, i32 2005} ; [ DW_TAG_subprogram ]
!686 = metadata !{i32 786453, i32 0, metadata !"", i32 0, i32 0, i64 0, i64 0, i64 0, i32 0, null, metadata !687, i32 0, i32 0} ; [ DW_TAG_subroutine_type ]
!687 = metadata !{metadata !688, metadata !503, metadata !79, metadata !79}
!688 = metadata !{i32 786434, null, metadata !"ap_range_ref<64, true>", metadata !63, i32 923, i32 0, i32 0, i32 0, i32 4, null, null, i32 0} ; [ DW_TAG_class_type ]
!689 = metadata !{i32 786478, i32 0, metadata !487, metadata !"operator()", metadata !"operator()", metadata !"_ZN11ap_int_baseILi64ELb1ELb1EEclEii", metadata !63, i32 2011, metadata !686, i1 false, i1 false, i32 0, i32 0, null, i32 256, i1 false, null, null, i32 0, metadata !75, i32 2011} ; [ DW_TAG_subprogram ]
!690 = metadata !{i32 786478, i32 0, metadata !487, metadata !"range", metadata !"range", metadata !"_ZNK11ap_int_baseILi64ELb1ELb1EE5rangeEii", metadata !63, i32 2017, metadata !691, i1 false, i1 false, i32 0, i32 0, null, i32 256, i1 false, null, null, i32 0, metadata !75, i32 2017} ; [ DW_TAG_subprogram ]
!691 = metadata !{i32 786453, i32 0, metadata !"", i32 0, i32 0, i64 0, i64 0, i64 0, i32 0, null, metadata !692, i32 0, i32 0} ; [ DW_TAG_subroutine_type ]
!692 = metadata !{metadata !688, metadata !609, metadata !79, metadata !79}
!693 = metadata !{i32 786478, i32 0, metadata !487, metadata !"operator()", metadata !"operator()", metadata !"_ZNK11ap_int_baseILi64ELb1ELb1EEclEii", metadata !63, i32 2023, metadata !691, i1 false, i1 false, i32 0, i32 0, null, i32 256, i1 false, null, null, i32 0, metadata !75, i32 2023} ; [ DW_TAG_subprogram ]
!694 = metadata !{i32 786478, i32 0, metadata !487, metadata !"operator[]", metadata !"operator[]", metadata !"_ZN11ap_int_baseILi64ELb1ELb1EEixEi", metadata !63, i32 2042, metadata !695, i1 false, i1 false, i32 0, i32 0, null, i32 256, i1 false, null, null, i32 0, metadata !75, i32 2042} ; [ DW_TAG_subprogram ]
!695 = metadata !{i32 786453, i32 0, metadata !"", i32 0, i32 0, i64 0, i64 0, i64 0, i32 0, null, metadata !696, i32 0, i32 0} ; [ DW_TAG_subroutine_type ]
!696 = metadata !{metadata !697, metadata !503, metadata !79}
!697 = metadata !{i32 786434, null, metadata !"ap_bit_ref<64, true>", metadata !63, i32 1193, i32 0, i32 0, i32 0, i32 4, null, null, i32 0} ; [ DW_TAG_class_type ]
!698 = metadata !{i32 786478, i32 0, metadata !487, metadata !"operator[]", metadata !"operator[]", metadata !"_ZNK11ap_int_baseILi64ELb1ELb1EEixEi", metadata !63, i32 2056, metadata !660, i1 false, i1 false, i32 0, i32 0, null, i32 256, i1 false, null, null, i32 0, metadata !75, i32 2056} ; [ DW_TAG_subprogram ]
!699 = metadata !{i32 786478, i32 0, metadata !487, metadata !"bit", metadata !"bit", metadata !"_ZN11ap_int_baseILi64ELb1ELb1EE3bitEi", metadata !63, i32 2070, metadata !695, i1 false, i1 false, i32 0, i32 0, null, i32 256, i1 false, null, null, i32 0, metadata !75, i32 2070} ; [ DW_TAG_subprogram ]
!700 = metadata !{i32 786478, i32 0, metadata !487, metadata !"bit", metadata !"bit", metadata !"_ZNK11ap_int_baseILi64ELb1ELb1EE3bitEi", metadata !63, i32 2084, metadata !660, i1 false, i1 false, i32 0, i32 0, null, i32 256, i1 false, null, null, i32 0, metadata !75, i32 2084} ; [ DW_TAG_subprogram ]
!701 = metadata !{i32 786478, i32 0, metadata !487, metadata !"and_reduce", metadata !"and_reduce", metadata !"_ZN11ap_int_baseILi64ELb1ELb1EE10and_reduceEv", metadata !63, i32 2264, metadata !702, i1 false, i1 false, i32 0, i32 0, null, i32 256, i1 false, null, null, i32 0, metadata !75, i32 2264} ; [ DW_TAG_subprogram ]
!702 = metadata !{i32 786453, i32 0, metadata !"", i32 0, i32 0, i64 0, i64 0, i64 0, i32 0, null, metadata !703, i32 0, i32 0} ; [ DW_TAG_subroutine_type ]
!703 = metadata !{metadata !81, metadata !503}
!704 = metadata !{i32 786478, i32 0, metadata !487, metadata !"nand_reduce", metadata !"nand_reduce", metadata !"_ZN11ap_int_baseILi64ELb1ELb1EE11nand_reduceEv", metadata !63, i32 2267, metadata !702, i1 false, i1 false, i32 0, i32 0, null, i32 256, i1 false, null, null, i32 0, metadata !75, i32 2267} ; [ DW_TAG_subprogram ]
!705 = metadata !{i32 786478, i32 0, metadata !487, metadata !"or_reduce", metadata !"or_reduce", metadata !"_ZN11ap_int_baseILi64ELb1ELb1EE9or_reduceEv", metadata !63, i32 2270, metadata !702, i1 false, i1 false, i32 0, i32 0, null, i32 256, i1 false, null, null, i32 0, metadata !75, i32 2270} ; [ DW_TAG_subprogram ]
!706 = metadata !{i32 786478, i32 0, metadata !487, metadata !"nor_reduce", metadata !"nor_reduce", metadata !"_ZN11ap_int_baseILi64ELb1ELb1EE10nor_reduceEv", metadata !63, i32 2273, metadata !702, i1 false, i1 false, i32 0, i32 0, null, i32 256, i1 false, null, null, i32 0, metadata !75, i32 2273} ; [ DW_TAG_subprogram ]
!707 = metadata !{i32 786478, i32 0, metadata !487, metadata !"xor_reduce", metadata !"xor_reduce", metadata !"_ZN11ap_int_baseILi64ELb1ELb1EE10xor_reduceEv", metadata !63, i32 2276, metadata !702, i1 false, i1 false, i32 0, i32 0, null, i32 256, i1 false, null, null, i32 0, metadata !75, i32 2276} ; [ DW_TAG_subprogram ]
!708 = metadata !{i32 786478, i32 0, metadata !487, metadata !"xnor_reduce", metadata !"xnor_reduce", metadata !"_ZN11ap_int_baseILi64ELb1ELb1EE11xnor_reduceEv", metadata !63, i32 2279, metadata !702, i1 false, i1 false, i32 0, i32 0, null, i32 256, i1 false, null, null, i32 0, metadata !75, i32 2279} ; [ DW_TAG_subprogram ]
!709 = metadata !{i32 786478, i32 0, metadata !487, metadata !"and_reduce", metadata !"and_reduce", metadata !"_ZNK11ap_int_baseILi64ELb1ELb1EE10and_reduceEv", metadata !63, i32 2283, metadata !611, i1 false, i1 false, i32 0, i32 0, null, i32 256, i1 false, null, null, i32 0, metadata !75, i32 2283} ; [ DW_TAG_subprogram ]
!710 = metadata !{i32 786478, i32 0, metadata !487, metadata !"nand_reduce", metadata !"nand_reduce", metadata !"_ZNK11ap_int_baseILi64ELb1ELb1EE11nand_reduceEv", metadata !63, i32 2286, metadata !611, i1 false, i1 false, i32 0, i32 0, null, i32 256, i1 false, null, null, i32 0, metadata !75, i32 2286} ; [ DW_TAG_subprogram ]
!711 = metadata !{i32 786478, i32 0, metadata !487, metadata !"or_reduce", metadata !"or_reduce", metadata !"_ZNK11ap_int_baseILi64ELb1ELb1EE9or_reduceEv", metadata !63, i32 2289, metadata !611, i1 false, i1 false, i32 0, i32 0, null, i32 256, i1 false, null, null, i32 0, metadata !75, i32 2289} ; [ DW_TAG_subprogram ]
!712 = metadata !{i32 786478, i32 0, metadata !487, metadata !"nor_reduce", metadata !"nor_reduce", metadata !"_ZNK11ap_int_baseILi64ELb1ELb1EE10nor_reduceEv", metadata !63, i32 2292, metadata !611, i1 false, i1 false, i32 0, i32 0, null, i32 256, i1 false, null, null, i32 0, metadata !75, i32 2292} ; [ DW_TAG_subprogram ]
!713 = metadata !{i32 786478, i32 0, metadata !487, metadata !"xor_reduce", metadata !"xor_reduce", metadata !"_ZNK11ap_int_baseILi64ELb1ELb1EE10xor_reduceEv", metadata !63, i32 2295, metadata !611, i1 false, i1 false, i32 0, i32 0, null, i32 256, i1 false, null, null, i32 0, metadata !75, i32 2295} ; [ DW_TAG_subprogram ]
!714 = metadata !{i32 786478, i32 0, metadata !487, metadata !"xnor_reduce", metadata !"xnor_reduce", metadata !"_ZNK11ap_int_baseILi64ELb1ELb1EE11xnor_reduceEv", metadata !63, i32 2298, metadata !611, i1 false, i1 false, i32 0, i32 0, null, i32 256, i1 false, null, null, i32 0, metadata !75, i32 2298} ; [ DW_TAG_subprogram ]
!715 = metadata !{i32 786478, i32 0, metadata !487, metadata !"to_string", metadata !"to_string", metadata !"_ZNK11ap_int_baseILi64ELb1ELb1EE9to_stringEPci8BaseModeb", metadata !63, i32 2305, metadata !716, i1 false, i1 false, i32 0, i32 0, null, i32 256, i1 false, null, null, i32 0, metadata !75, i32 2305} ; [ DW_TAG_subprogram ]
!716 = metadata !{i32 786453, i32 0, metadata !"", i32 0, i32 0, i64 0, i64 0, i64 0, i32 0, null, metadata !717, i32 0, i32 0} ; [ DW_TAG_subroutine_type ]
!717 = metadata !{null, metadata !609, metadata !718, metadata !79, metadata !719, metadata !81}
!718 = metadata !{i32 786447, null, metadata !"", null, i32 0, i64 64, i64 64, i64 0, i32 0, metadata !143} ; [ DW_TAG_pointer_type ]
!719 = metadata !{i32 786436, null, metadata !"BaseMode", metadata !63, i32 602, i64 5, i64 8, i32 0, i32 0, null, metadata !720, i32 0, i32 0} ; [ DW_TAG_enumeration_type ]
!720 = metadata !{metadata !721, metadata !722, metadata !723, metadata !724}
!721 = metadata !{i32 786472, metadata !"SC_BIN", i64 2} ; [ DW_TAG_enumerator ]
!722 = metadata !{i32 786472, metadata !"SC_OCT", i64 8} ; [ DW_TAG_enumerator ]
!723 = metadata !{i32 786472, metadata !"SC_DEC", i64 10} ; [ DW_TAG_enumerator ]
!724 = metadata !{i32 786472, metadata !"SC_HEX", i64 16} ; [ DW_TAG_enumerator ]
!725 = metadata !{i32 786478, i32 0, metadata !487, metadata !"to_string", metadata !"to_string", metadata !"_ZNK11ap_int_baseILi64ELb1ELb1EE9to_stringE8BaseModeb", metadata !63, i32 2332, metadata !726, i1 false, i1 false, i32 0, i32 0, null, i32 256, i1 false, null, null, i32 0, metadata !75, i32 2332} ; [ DW_TAG_subprogram ]
!726 = metadata !{i32 786453, i32 0, metadata !"", i32 0, i32 0, i64 0, i64 0, i64 0, i32 0, null, metadata !727, i32 0, i32 0} ; [ DW_TAG_subroutine_type ]
!727 = metadata !{metadata !718, metadata !609, metadata !719, metadata !81}
!728 = metadata !{i32 786478, i32 0, metadata !487, metadata !"to_string", metadata !"to_string", metadata !"_ZNK11ap_int_baseILi64ELb1ELb1EE9to_stringEab", metadata !63, i32 2336, metadata !729, i1 false, i1 false, i32 0, i32 0, null, i32 256, i1 false, null, null, i32 0, metadata !75, i32 2336} ; [ DW_TAG_subprogram ]
!729 = metadata !{i32 786453, i32 0, metadata !"", i32 0, i32 0, i64 0, i64 0, i64 0, i32 0, null, metadata !730, i32 0, i32 0} ; [ DW_TAG_subroutine_type ]
!730 = metadata !{metadata !718, metadata !609, metadata !92, metadata !81}
!731 = metadata !{metadata !732, metadata !499, metadata !733}
!732 = metadata !{i32 786480, null, metadata !"_AP_W", metadata !79, i64 64, null, i32 0, i32 0} ; [ DW_TAG_template_value_parameter ]
!733 = metadata !{i32 786480, null, metadata !"_AP_C", metadata !81, i64 1, null, i32 0, i32 0} ; [ DW_TAG_template_value_parameter ]
!734 = metadata !{i32 786478, i32 0, metadata !279, metadata !"range", metadata !"range", metadata !"_ZN11ap_int_baseILi64ELb0ELb1EE5rangeEii", metadata !63, i32 2005, metadata !735, i1 false, i1 false, i32 0, i32 0, null, i32 256, i1 false, null, null, i32 0, metadata !75, i32 2005} ; [ DW_TAG_subprogram ]
!735 = metadata !{i32 786453, i32 0, metadata !"", i32 0, i32 0, i64 0, i64 0, i64 0, i32 0, null, metadata !736, i32 0, i32 0} ; [ DW_TAG_subroutine_type ]
!736 = metadata !{metadata !737, metadata !295, metadata !79, metadata !79}
!737 = metadata !{i32 786434, null, metadata !"ap_range_ref<64, false>", metadata !63, i32 923, i64 128, i64 64, i32 0, i32 0, null, metadata !738, i32 0, null, metadata !794} ; [ DW_TAG_class_type ]
!738 = metadata !{metadata !739, metadata !740, metadata !741, metadata !742, metadata !748, metadata !752, metadata !756, metadata !759, metadata !763, metadata !766, metadata !770, metadata !773, metadata !774, metadata !777, metadata !780, metadata !783, metadata !786, metadata !789, metadata !792, metadata !793}
!739 = metadata !{i32 786445, metadata !737, metadata !"d_bv", metadata !63, i32 924, i64 64, i64 64, i64 0, i32 0, metadata !367} ; [ DW_TAG_member ]
!740 = metadata !{i32 786445, metadata !737, metadata !"l_index", metadata !63, i32 925, i64 32, i64 32, i64 64, i32 0, metadata !79} ; [ DW_TAG_member ]
!741 = metadata !{i32 786445, metadata !737, metadata !"h_index", metadata !63, i32 926, i64 32, i64 32, i64 96, i32 0, metadata !79} ; [ DW_TAG_member ]
!742 = metadata !{i32 786478, i32 0, metadata !737, metadata !"ap_range_ref", metadata !"ap_range_ref", metadata !"", metadata !63, i32 929, metadata !743, i1 false, i1 false, i32 0, i32 0, null, i32 256, i1 false, null, null, i32 0, metadata !75, i32 929} ; [ DW_TAG_subprogram ]
!743 = metadata !{i32 786453, i32 0, metadata !"", i32 0, i32 0, i64 0, i64 0, i64 0, i32 0, null, metadata !744, i32 0, i32 0} ; [ DW_TAG_subroutine_type ]
!744 = metadata !{null, metadata !745, metadata !746}
!745 = metadata !{i32 786447, i32 0, metadata !"", i32 0, i32 0, i64 64, i64 64, i64 0, i32 64, metadata !737} ; [ DW_TAG_pointer_type ]
!746 = metadata !{i32 786448, null, null, null, i32 0, i64 0, i64 0, i64 0, i32 0, metadata !747} ; [ DW_TAG_reference_type ]
!747 = metadata !{i32 786470, null, metadata !"", null, i32 0, i64 0, i64 0, i64 0, i32 0, metadata !737} ; [ DW_TAG_const_type ]
!748 = metadata !{i32 786478, i32 0, metadata !737, metadata !"ap_range_ref", metadata !"ap_range_ref", metadata !"", metadata !63, i32 932, metadata !749, i1 false, i1 false, i32 0, i32 0, null, i32 256, i1 false, null, null, i32 0, metadata !75, i32 932} ; [ DW_TAG_subprogram ]
!749 = metadata !{i32 786453, i32 0, metadata !"", i32 0, i32 0, i64 0, i64 0, i64 0, i32 0, null, metadata !750, i32 0, i32 0} ; [ DW_TAG_subroutine_type ]
!750 = metadata !{null, metadata !745, metadata !751, metadata !79, metadata !79}
!751 = metadata !{i32 786447, null, metadata !"", null, i32 0, i64 64, i64 64, i64 0, i32 0, metadata !279} ; [ DW_TAG_pointer_type ]
!752 = metadata !{i32 786478, i32 0, metadata !737, metadata !"operator ap_int_base", metadata !"operator ap_int_base", metadata !"_ZNK12ap_range_refILi64ELb0EEcv11ap_int_baseILi64ELb0ELb1EEEv", metadata !63, i32 937, metadata !753, i1 false, i1 false, i32 0, i32 0, null, i32 256, i1 false, null, null, i32 0, metadata !75, i32 937} ; [ DW_TAG_subprogram ]
!753 = metadata !{i32 786453, i32 0, metadata !"", i32 0, i32 0, i64 0, i64 0, i64 0, i32 0, null, metadata !754, i32 0, i32 0} ; [ DW_TAG_subroutine_type ]
!754 = metadata !{metadata !279, metadata !755}
!755 = metadata !{i32 786447, i32 0, metadata !"", i32 0, i32 0, i64 64, i64 64, i64 0, i32 64, metadata !747} ; [ DW_TAG_pointer_type ]
!756 = metadata !{i32 786478, i32 0, metadata !737, metadata !"operator unsigned long long", metadata !"operator unsigned long long", metadata !"_ZNK12ap_range_refILi64ELb0EEcvyEv", metadata !63, i32 943, metadata !757, i1 false, i1 false, i32 0, i32 0, null, i32 256, i1 false, null, null, i32 0, metadata !75, i32 943} ; [ DW_TAG_subprogram ]
!757 = metadata !{i32 786453, i32 0, metadata !"", i32 0, i32 0, i64 0, i64 0, i64 0, i32 0, null, metadata !758, i32 0, i32 0} ; [ DW_TAG_subroutine_type ]
!758 = metadata !{metadata !129, metadata !755}
!759 = metadata !{i32 786478, i32 0, metadata !737, metadata !"operator=", metadata !"operator=", metadata !"_ZN12ap_range_refILi64ELb0EEaSEy", metadata !63, i32 947, metadata !760, i1 false, i1 false, i32 0, i32 0, null, i32 256, i1 false, null, null, i32 0, metadata !75, i32 947} ; [ DW_TAG_subprogram ]
!760 = metadata !{i32 786453, i32 0, metadata !"", i32 0, i32 0, i64 0, i64 0, i64 0, i32 0, null, metadata !761, i32 0, i32 0} ; [ DW_TAG_subroutine_type ]
!761 = metadata !{metadata !762, metadata !745, metadata !129}
!762 = metadata !{i32 786448, null, null, null, i32 0, i64 0, i64 0, i64 0, i32 0, metadata !737} ; [ DW_TAG_reference_type ]
!763 = metadata !{i32 786478, i32 0, metadata !737, metadata !"operator=", metadata !"operator=", metadata !"_ZN12ap_range_refILi64ELb0EEaSERKS0_", metadata !63, i32 965, metadata !764, i1 false, i1 false, i32 0, i32 0, null, i32 256, i1 false, null, null, i32 0, metadata !75, i32 965} ; [ DW_TAG_subprogram ]
!764 = metadata !{i32 786453, i32 0, metadata !"", i32 0, i32 0, i64 0, i64 0, i64 0, i32 0, null, metadata !765, i32 0, i32 0} ; [ DW_TAG_subroutine_type ]
!765 = metadata !{metadata !762, metadata !745, metadata !746}
!766 = metadata !{i32 786478, i32 0, metadata !737, metadata !"operator,", metadata !"operator,", metadata !"_ZN12ap_range_refILi64ELb0EEcmER11ap_int_baseILi64ELb0ELb1EE", metadata !63, i32 1020, metadata !767, i1 false, i1 false, i32 0, i32 0, null, i32 256, i1 false, null, null, i32 0, metadata !75, i32 1020} ; [ DW_TAG_subprogram ]
!767 = metadata !{i32 786453, i32 0, metadata !"", i32 0, i32 0, i64 0, i64 0, i64 0, i32 0, null, metadata !768, i32 0, i32 0} ; [ DW_TAG_subroutine_type ]
!768 = metadata !{metadata !769, metadata !745, metadata !367}
!769 = metadata !{i32 786434, null, metadata !"ap_concat_ref<64, ap_range_ref<64, false>, 64, ap_int_base<64, false, true> >", metadata !63, i32 686, i32 0, i32 0, i32 0, i32 4, null, null, i32 0} ; [ DW_TAG_class_type ]
!770 = metadata !{i32 786478, i32 0, metadata !737, metadata !"length", metadata !"length", metadata !"_ZNK12ap_range_refILi64ELb0EE6lengthEv", metadata !63, i32 1131, metadata !771, i1 false, i1 false, i32 0, i32 0, null, i32 256, i1 false, null, null, i32 0, metadata !75, i32 1131} ; [ DW_TAG_subprogram ]
!771 = metadata !{i32 786453, i32 0, metadata !"", i32 0, i32 0, i64 0, i64 0, i64 0, i32 0, null, metadata !772, i32 0, i32 0} ; [ DW_TAG_subroutine_type ]
!772 = metadata !{metadata !79, metadata !755}
!773 = metadata !{i32 786478, i32 0, metadata !737, metadata !"to_int", metadata !"to_int", metadata !"_ZNK12ap_range_refILi64ELb0EE6to_intEv", metadata !63, i32 1135, metadata !771, i1 false, i1 false, i32 0, i32 0, null, i32 256, i1 false, null, null, i32 0, metadata !75, i32 1135} ; [ DW_TAG_subprogram ]
!774 = metadata !{i32 786478, i32 0, metadata !737, metadata !"to_uint", metadata !"to_uint", metadata !"_ZNK12ap_range_refILi64ELb0EE7to_uintEv", metadata !63, i32 1138, metadata !775, i1 false, i1 false, i32 0, i32 0, null, i32 256, i1 false, null, null, i32 0, metadata !75, i32 1138} ; [ DW_TAG_subprogram ]
!775 = metadata !{i32 786453, i32 0, metadata !"", i32 0, i32 0, i64 0, i64 0, i64 0, i32 0, null, metadata !776, i32 0, i32 0} ; [ DW_TAG_subroutine_type ]
!776 = metadata !{metadata !111, metadata !755}
!777 = metadata !{i32 786478, i32 0, metadata !737, metadata !"to_long", metadata !"to_long", metadata !"_ZNK12ap_range_refILi64ELb0EE7to_longEv", metadata !63, i32 1141, metadata !778, i1 false, i1 false, i32 0, i32 0, null, i32 256, i1 false, null, null, i32 0, metadata !75, i32 1141} ; [ DW_TAG_subprogram ]
!778 = metadata !{i32 786453, i32 0, metadata !"", i32 0, i32 0, i64 0, i64 0, i64 0, i32 0, null, metadata !779, i32 0, i32 0} ; [ DW_TAG_subroutine_type ]
!779 = metadata !{metadata !115, metadata !755}
!780 = metadata !{i32 786478, i32 0, metadata !737, metadata !"to_ulong", metadata !"to_ulong", metadata !"_ZNK12ap_range_refILi64ELb0EE8to_ulongEv", metadata !63, i32 1144, metadata !781, i1 false, i1 false, i32 0, i32 0, null, i32 256, i1 false, null, null, i32 0, metadata !75, i32 1144} ; [ DW_TAG_subprogram ]
!781 = metadata !{i32 786453, i32 0, metadata !"", i32 0, i32 0, i64 0, i64 0, i64 0, i32 0, null, metadata !782, i32 0, i32 0} ; [ DW_TAG_subroutine_type ]
!782 = metadata !{metadata !119, metadata !755}
!783 = metadata !{i32 786478, i32 0, metadata !737, metadata !"to_int64", metadata !"to_int64", metadata !"_ZNK12ap_range_refILi64ELb0EE8to_int64Ev", metadata !63, i32 1147, metadata !784, i1 false, i1 false, i32 0, i32 0, null, i32 256, i1 false, null, null, i32 0, metadata !75, i32 1147} ; [ DW_TAG_subprogram ]
!784 = metadata !{i32 786453, i32 0, metadata !"", i32 0, i32 0, i64 0, i64 0, i64 0, i32 0, null, metadata !785, i32 0, i32 0} ; [ DW_TAG_subroutine_type ]
!785 = metadata !{metadata !123, metadata !755}
!786 = metadata !{i32 786478, i32 0, metadata !737, metadata !"to_uint64", metadata !"to_uint64", metadata !"_ZNK12ap_range_refILi64ELb0EE9to_uint64Ev", metadata !63, i32 1150, metadata !787, i1 false, i1 false, i32 0, i32 0, null, i32 256, i1 false, null, null, i32 0, metadata !75, i32 1150} ; [ DW_TAG_subprogram ]
!787 = metadata !{i32 786453, i32 0, metadata !"", i32 0, i32 0, i64 0, i64 0, i64 0, i32 0, null, metadata !788, i32 0, i32 0} ; [ DW_TAG_subroutine_type ]
!788 = metadata !{metadata !128, metadata !755}
!789 = metadata !{i32 786478, i32 0, metadata !737, metadata !"and_reduce", metadata !"and_reduce", metadata !"_ZNK12ap_range_refILi64ELb0EE10and_reduceEv", metadata !63, i32 1153, metadata !790, i1 false, i1 false, i32 0, i32 0, null, i32 256, i1 false, null, null, i32 0, metadata !75, i32 1153} ; [ DW_TAG_subprogram ]
!790 = metadata !{i32 786453, i32 0, metadata !"", i32 0, i32 0, i64 0, i64 0, i64 0, i32 0, null, metadata !791, i32 0, i32 0} ; [ DW_TAG_subroutine_type ]
!791 = metadata !{metadata !81, metadata !755}
!792 = metadata !{i32 786478, i32 0, metadata !737, metadata !"or_reduce", metadata !"or_reduce", metadata !"_ZNK12ap_range_refILi64ELb0EE9or_reduceEv", metadata !63, i32 1164, metadata !790, i1 false, i1 false, i32 0, i32 0, null, i32 256, i1 false, null, null, i32 0, metadata !75, i32 1164} ; [ DW_TAG_subprogram ]
!793 = metadata !{i32 786478, i32 0, metadata !737, metadata !"xor_reduce", metadata !"xor_reduce", metadata !"_ZNK12ap_range_refILi64ELb0EE10xor_reduceEv", metadata !63, i32 1175, metadata !790, i1 false, i1 false, i32 0, i32 0, null, i32 256, i1 false, null, null, i32 0, metadata !75, i32 1175} ; [ DW_TAG_subprogram ]
!794 = metadata !{metadata !732, metadata !80}
!795 = metadata !{i32 786478, i32 0, metadata !279, metadata !"operator()", metadata !"operator()", metadata !"_ZN11ap_int_baseILi64ELb0ELb1EEclEii", metadata !63, i32 2011, metadata !735, i1 false, i1 false, i32 0, i32 0, null, i32 256, i1 false, null, null, i32 0, metadata !75, i32 2011} ; [ DW_TAG_subprogram ]
!796 = metadata !{i32 786478, i32 0, metadata !279, metadata !"range", metadata !"range", metadata !"_ZNK11ap_int_baseILi64ELb0ELb1EE5rangeEii", metadata !63, i32 2017, metadata !797, i1 false, i1 false, i32 0, i32 0, null, i32 256, i1 false, null, null, i32 0, metadata !75, i32 2017} ; [ DW_TAG_subprogram ]
!797 = metadata !{i32 786453, i32 0, metadata !"", i32 0, i32 0, i64 0, i64 0, i64 0, i32 0, null, metadata !798, i32 0, i32 0} ; [ DW_TAG_subroutine_type ]
!798 = metadata !{metadata !737, metadata !409, metadata !79, metadata !79}
!799 = metadata !{i32 786478, i32 0, metadata !279, metadata !"operator()", metadata !"operator()", metadata !"_ZNK11ap_int_baseILi64ELb0ELb1EEclEii", metadata !63, i32 2023, metadata !797, i1 false, i1 false, i32 0, i32 0, null, i32 256, i1 false, null, null, i32 0, metadata !75, i32 2023} ; [ DW_TAG_subprogram ]
!800 = metadata !{i32 786478, i32 0, metadata !279, metadata !"operator[]", metadata !"operator[]", metadata !"_ZN11ap_int_baseILi64ELb0ELb1EEixEi", metadata !63, i32 2042, metadata !801, i1 false, i1 false, i32 0, i32 0, null, i32 256, i1 false, null, null, i32 0, metadata !75, i32 2042} ; [ DW_TAG_subprogram ]
!801 = metadata !{i32 786453, i32 0, metadata !"", i32 0, i32 0, i64 0, i64 0, i64 0, i32 0, null, metadata !802, i32 0, i32 0} ; [ DW_TAG_subroutine_type ]
!802 = metadata !{metadata !803, metadata !295, metadata !79}
!803 = metadata !{i32 786434, null, metadata !"ap_bit_ref<64, false>", metadata !63, i32 1193, i32 0, i32 0, i32 0, i32 4, null, null, i32 0} ; [ DW_TAG_class_type ]
!804 = metadata !{i32 786478, i32 0, metadata !279, metadata !"operator[]", metadata !"operator[]", metadata !"_ZNK11ap_int_baseILi64ELb0ELb1EEixEi", metadata !63, i32 2056, metadata !460, i1 false, i1 false, i32 0, i32 0, null, i32 256, i1 false, null, null, i32 0, metadata !75, i32 2056} ; [ DW_TAG_subprogram ]
!805 = metadata !{i32 786478, i32 0, metadata !279, metadata !"bit", metadata !"bit", metadata !"_ZN11ap_int_baseILi64ELb0ELb1EE3bitEi", metadata !63, i32 2070, metadata !801, i1 false, i1 false, i32 0, i32 0, null, i32 256, i1 false, null, null, i32 0, metadata !75, i32 2070} ; [ DW_TAG_subprogram ]
!806 = metadata !{i32 786478, i32 0, metadata !279, metadata !"bit", metadata !"bit", metadata !"_ZNK11ap_int_baseILi64ELb0ELb1EE3bitEi", metadata !63, i32 2084, metadata !460, i1 false, i1 false, i32 0, i32 0, null, i32 256, i1 false, null, null, i32 0, metadata !75, i32 2084} ; [ DW_TAG_subprogram ]
!807 = metadata !{i32 786478, i32 0, metadata !279, metadata !"and_reduce", metadata !"and_reduce", metadata !"_ZN11ap_int_baseILi64ELb0ELb1EE10and_reduceEv", metadata !63, i32 2264, metadata !808, i1 false, i1 false, i32 0, i32 0, null, i32 256, i1 false, null, null, i32 0, metadata !75, i32 2264} ; [ DW_TAG_subprogram ]
!808 = metadata !{i32 786453, i32 0, metadata !"", i32 0, i32 0, i64 0, i64 0, i64 0, i32 0, null, metadata !809, i32 0, i32 0} ; [ DW_TAG_subroutine_type ]
!809 = metadata !{metadata !81, metadata !295}
!810 = metadata !{i32 786478, i32 0, metadata !279, metadata !"nand_reduce", metadata !"nand_reduce", metadata !"_ZN11ap_int_baseILi64ELb0ELb1EE11nand_reduceEv", metadata !63, i32 2267, metadata !808, i1 false, i1 false, i32 0, i32 0, null, i32 256, i1 false, null, null, i32 0, metadata !75, i32 2267} ; [ DW_TAG_subprogram ]
!811 = metadata !{i32 786478, i32 0, metadata !279, metadata !"or_reduce", metadata !"or_reduce", metadata !"_ZN11ap_int_baseILi64ELb0ELb1EE9or_reduceEv", metadata !63, i32 2270, metadata !808, i1 false, i1 false, i32 0, i32 0, null, i32 256, i1 false, null, null, i32 0, metadata !75, i32 2270} ; [ DW_TAG_subprogram ]
!812 = metadata !{i32 786478, i32 0, metadata !279, metadata !"nor_reduce", metadata !"nor_reduce", metadata !"_ZN11ap_int_baseILi64ELb0ELb1EE10nor_reduceEv", metadata !63, i32 2273, metadata !808, i1 false, i1 false, i32 0, i32 0, null, i32 256, i1 false, null, null, i32 0, metadata !75, i32 2273} ; [ DW_TAG_subprogram ]
!813 = metadata !{i32 786478, i32 0, metadata !279, metadata !"xor_reduce", metadata !"xor_reduce", metadata !"_ZN11ap_int_baseILi64ELb0ELb1EE10xor_reduceEv", metadata !63, i32 2276, metadata !808, i1 false, i1 false, i32 0, i32 0, null, i32 256, i1 false, null, null, i32 0, metadata !75, i32 2276} ; [ DW_TAG_subprogram ]
!814 = metadata !{i32 786478, i32 0, metadata !279, metadata !"xnor_reduce", metadata !"xnor_reduce", metadata !"_ZN11ap_int_baseILi64ELb0ELb1EE11xnor_reduceEv", metadata !63, i32 2279, metadata !808, i1 false, i1 false, i32 0, i32 0, null, i32 256, i1 false, null, null, i32 0, metadata !75, i32 2279} ; [ DW_TAG_subprogram ]
!815 = metadata !{i32 786478, i32 0, metadata !279, metadata !"and_reduce", metadata !"and_reduce", metadata !"_ZNK11ap_int_baseILi64ELb0ELb1EE10and_reduceEv", metadata !63, i32 2283, metadata !411, i1 false, i1 false, i32 0, i32 0, null, i32 256, i1 false, null, null, i32 0, metadata !75, i32 2283} ; [ DW_TAG_subprogram ]
!816 = metadata !{i32 786478, i32 0, metadata !279, metadata !"nand_reduce", metadata !"nand_reduce", metadata !"_ZNK11ap_int_baseILi64ELb0ELb1EE11nand_reduceEv", metadata !63, i32 2286, metadata !411, i1 false, i1 false, i32 0, i32 0, null, i32 256, i1 false, null, null, i32 0, metadata !75, i32 2286} ; [ DW_TAG_subprogram ]
!817 = metadata !{i32 786478, i32 0, metadata !279, metadata !"or_reduce", metadata !"or_reduce", metadata !"_ZNK11ap_int_baseILi64ELb0ELb1EE9or_reduceEv", metadata !63, i32 2289, metadata !411, i1 false, i1 false, i32 0, i32 0, null, i32 256, i1 false, null, null, i32 0, metadata !75, i32 2289} ; [ DW_TAG_subprogram ]
!818 = metadata !{i32 786478, i32 0, metadata !279, metadata !"nor_reduce", metadata !"nor_reduce", metadata !"_ZNK11ap_int_baseILi64ELb0ELb1EE10nor_reduceEv", metadata !63, i32 2292, metadata !411, i1 false, i1 false, i32 0, i32 0, null, i32 256, i1 false, null, null, i32 0, metadata !75, i32 2292} ; [ DW_TAG_subprogram ]
!819 = metadata !{i32 786478, i32 0, metadata !279, metadata !"xor_reduce", metadata !"xor_reduce", metadata !"_ZNK11ap_int_baseILi64ELb0ELb1EE10xor_reduceEv", metadata !63, i32 2295, metadata !411, i1 false, i1 false, i32 0, i32 0, null, i32 256, i1 false, null, null, i32 0, metadata !75, i32 2295} ; [ DW_TAG_subprogram ]
!820 = metadata !{i32 786478, i32 0, metadata !279, metadata !"xnor_reduce", metadata !"xnor_reduce", metadata !"_ZNK11ap_int_baseILi64ELb0ELb1EE11xnor_reduceEv", metadata !63, i32 2298, metadata !411, i1 false, i1 false, i32 0, i32 0, null, i32 256, i1 false, null, null, i32 0, metadata !75, i32 2298} ; [ DW_TAG_subprogram ]
!821 = metadata !{i32 786478, i32 0, metadata !279, metadata !"to_string", metadata !"to_string", metadata !"_ZNK11ap_int_baseILi64ELb0ELb1EE9to_stringEPci8BaseModeb", metadata !63, i32 2305, metadata !822, i1 false, i1 false, i32 0, i32 0, null, i32 256, i1 false, null, null, i32 0, metadata !75, i32 2305} ; [ DW_TAG_subprogram ]
!822 = metadata !{i32 786453, i32 0, metadata !"", i32 0, i32 0, i64 0, i64 0, i64 0, i32 0, null, metadata !823, i32 0, i32 0} ; [ DW_TAG_subroutine_type ]
!823 = metadata !{null, metadata !409, metadata !718, metadata !79, metadata !719, metadata !81}
!824 = metadata !{i32 786478, i32 0, metadata !279, metadata !"to_string", metadata !"to_string", metadata !"_ZNK11ap_int_baseILi64ELb0ELb1EE9to_stringE8BaseModeb", metadata !63, i32 2332, metadata !825, i1 false, i1 false, i32 0, i32 0, null, i32 256, i1 false, null, null, i32 0, metadata !75, i32 2332} ; [ DW_TAG_subprogram ]
!825 = metadata !{i32 786453, i32 0, metadata !"", i32 0, i32 0, i64 0, i64 0, i64 0, i32 0, null, metadata !826, i32 0, i32 0} ; [ DW_TAG_subroutine_type ]
!826 = metadata !{metadata !718, metadata !409, metadata !719, metadata !81}
!827 = metadata !{i32 786478, i32 0, metadata !279, metadata !"to_string", metadata !"to_string", metadata !"_ZNK11ap_int_baseILi64ELb0ELb1EE9to_stringEab", metadata !63, i32 2336, metadata !828, i1 false, i1 false, i32 0, i32 0, null, i32 256, i1 false, null, null, i32 0, metadata !75, i32 2336} ; [ DW_TAG_subprogram ]
!828 = metadata !{i32 786453, i32 0, metadata !"", i32 0, i32 0, i64 0, i64 0, i64 0, i32 0, null, metadata !829, i32 0, i32 0} ; [ DW_TAG_subroutine_type ]
!829 = metadata !{metadata !718, metadata !409, metadata !92, metadata !81}
!830 = metadata !{i32 786478, i32 0, metadata !279, metadata !"~ap_int_base", metadata !"~ap_int_base", metadata !"", metadata !63, i32 1397, metadata !293, i1 false, i1 false, i32 0, i32 0, null, i32 320, i1 false, null, null, i32 0, metadata !75, i32 1397} ; [ DW_TAG_subprogram ]
!831 = metadata !{metadata !732, metadata !80, metadata !733}
!832 = metadata !{i32 786478, i32 0, metadata !62, metadata !"operator++", metadata !"operator++", metadata !"_ZN11ap_int_baseILi32ELb0ELb1EEppEv", metadata !63, i32 1838, metadata !252, i1 false, i1 false, i32 0, i32 0, null, i32 256, i1 false, null, null, i32 0, metadata !75, i32 1838} ; [ DW_TAG_subprogram ]
!833 = metadata !{i32 786478, i32 0, metadata !62, metadata !"operator--", metadata !"operator--", metadata !"_ZN11ap_int_baseILi32ELb0ELb1EEmmEv", metadata !63, i32 1842, metadata !252, i1 false, i1 false, i32 0, i32 0, null, i32 256, i1 false, null, null, i32 0, metadata !75, i32 1842} ; [ DW_TAG_subprogram ]
!834 = metadata !{i32 786478, i32 0, metadata !62, metadata !"operator++", metadata !"operator++", metadata !"_ZN11ap_int_baseILi32ELb0ELb1EEppEi", metadata !63, i32 1850, metadata !835, i1 false, i1 false, i32 0, i32 0, null, i32 256, i1 false, null, null, i32 0, metadata !75, i32 1850} ; [ DW_TAG_subprogram ]
!835 = metadata !{i32 786453, i32 0, metadata !"", i32 0, i32 0, i64 0, i64 0, i64 0, i32 0, null, metadata !836, i32 0, i32 0} ; [ DW_TAG_subroutine_type ]
!836 = metadata !{metadata !156, metadata !85, metadata !79}
!837 = metadata !{i32 786478, i32 0, metadata !62, metadata !"operator--", metadata !"operator--", metadata !"_ZN11ap_int_baseILi32ELb0ELb1EEmmEi", metadata !63, i32 1855, metadata !835, i1 false, i1 false, i32 0, i32 0, null, i32 256, i1 false, null, null, i32 0, metadata !75, i32 1855} ; [ DW_TAG_subprogram ]
!838 = metadata !{i32 786478, i32 0, metadata !62, metadata !"operator+", metadata !"operator+", metadata !"_ZNK11ap_int_baseILi32ELb0ELb1EEpsEv", metadata !63, i32 1864, metadata !839, i1 false, i1 false, i32 0, i32 0, null, i32 256, i1 false, null, null, i32 0, metadata !75, i32 1864} ; [ DW_TAG_subprogram ]
!839 = metadata !{i32 786453, i32 0, metadata !"", i32 0, i32 0, i64 0, i64 0, i64 0, i32 0, null, metadata !840, i32 0, i32 0} ; [ DW_TAG_subroutine_type ]
!840 = metadata !{metadata !62, metadata !209}
!841 = metadata !{i32 786478, i32 0, metadata !62, metadata !"operator!", metadata !"operator!", metadata !"_ZNK11ap_int_baseILi32ELb0ELb1EEntEv", metadata !63, i32 1870, metadata !211, i1 false, i1 false, i32 0, i32 0, null, i32 256, i1 false, null, null, i32 0, metadata !75, i32 1870} ; [ DW_TAG_subprogram ]
!842 = metadata !{i32 786478, i32 0, metadata !62, metadata !"operator-", metadata !"operator-", metadata !"_ZNK11ap_int_baseILi32ELb0ELb1EEngEv", metadata !63, i32 1875, metadata !843, i1 false, i1 false, i32 0, i32 0, null, i32 256, i1 false, null, null, i32 0, metadata !75, i32 1875} ; [ DW_TAG_subprogram ]
!843 = metadata !{i32 786453, i32 0, metadata !"", i32 0, i32 0, i64 0, i64 0, i64 0, i32 0, null, metadata !844, i32 0, i32 0} ; [ DW_TAG_subroutine_type ]
!844 = metadata !{metadata !845, metadata !209}
!845 = metadata !{i32 786434, null, metadata !"ap_int_base<33, true, true>", metadata !63, i32 1397, i64 64, i64 64, i32 0, i32 0, null, metadata !846, i32 0, null, metadata !1130} ; [ DW_TAG_class_type ]
!846 = metadata !{metadata !847, metadata !858, metadata !862, metadata !870, metadata !876, metadata !879, metadata !882, metadata !885, metadata !888, metadata !891, metadata !894, metadata !897, metadata !900, metadata !903, metadata !906, metadata !909, metadata !912, metadata !915, metadata !918, metadata !921, metadata !925, metadata !928, metadata !931, metadata !932, metadata !936, metadata !939, metadata !942, metadata !945, metadata !948, metadata !951, metadata !954, metadata !957, metadata !960, metadata !963, metadata !966, metadata !969, metadata !978, metadata !981, metadata !984, metadata !987, metadata !990, metadata !993, metadata !996, metadata !999, metadata !1002, metadata !1005, metadata !1008, metadata !1011, metadata !1014, metadata !1015, metadata !1019, metadata !1022, metadata !1023, metadata !1024, metadata !1025, metadata !1026, metadata !1027, metadata !1030, metadata !1031, metadata !1034, metadata !1035, metadata !1036, metadata !1037, metadata !1038, metadata !1039, metadata !1042, metadata !1043, metadata !1044, metadata !1047, metadata !1048, metadata !1051, metadata !1052, metadata !1056, metadata !1060, metadata !1061, metadata !1064, metadata !1065, metadata !1104, metadata !1105, metadata !1106, metadata !1107, metadata !1110, metadata !1111, metadata !1112, metadata !1113, metadata !1114, metadata !1115, metadata !1116, metadata !1117, metadata !1118, metadata !1119, metadata !1120, metadata !1121, metadata !1124, metadata !1127}
!847 = metadata !{i32 786460, metadata !845, null, metadata !63, i32 0, i64 0, i64 0, i64 0, i32 0, metadata !848} ; [ DW_TAG_inheritance ]
!848 = metadata !{i32 786434, null, metadata !"ssdm_int<33 + 1024 * 0, true>", metadata !67, i32 35, i64 64, i64 64, i32 0, i32 0, null, metadata !849, i32 0, null, metadata !856} ; [ DW_TAG_class_type ]
!849 = metadata !{metadata !850, metadata !852}
!850 = metadata !{i32 786445, metadata !848, metadata !"V", metadata !67, i32 35, i64 33, i64 64, i64 0, i32 0, metadata !851} ; [ DW_TAG_member ]
!851 = metadata !{i32 786468, null, metadata !"int33", null, i32 0, i64 33, i64 64, i64 0, i32 0, i32 5} ; [ DW_TAG_base_type ]
!852 = metadata !{i32 786478, i32 0, metadata !848, metadata !"ssdm_int", metadata !"ssdm_int", metadata !"", metadata !67, i32 35, metadata !853, i1 false, i1 false, i32 0, i32 0, null, i32 256, i1 false, null, null, i32 0, metadata !75, i32 35} ; [ DW_TAG_subprogram ]
!853 = metadata !{i32 786453, i32 0, metadata !"", i32 0, i32 0, i64 0, i64 0, i64 0, i32 0, null, metadata !854, i32 0, i32 0} ; [ DW_TAG_subroutine_type ]
!854 = metadata !{null, metadata !855}
!855 = metadata !{i32 786447, i32 0, metadata !"", i32 0, i32 0, i64 64, i64 64, i64 0, i32 64, metadata !848} ; [ DW_TAG_pointer_type ]
!856 = metadata !{metadata !857, metadata !499}
!857 = metadata !{i32 786480, null, metadata !"_AP_N", metadata !79, i64 33, null, i32 0, i32 0} ; [ DW_TAG_template_value_parameter ]
!858 = metadata !{i32 786478, i32 0, metadata !845, metadata !"ap_int_base", metadata !"ap_int_base", metadata !"", metadata !63, i32 1438, metadata !859, i1 false, i1 false, i32 0, i32 0, null, i32 256, i1 false, null, null, i32 0, metadata !75, i32 1438} ; [ DW_TAG_subprogram ]
!859 = metadata !{i32 786453, i32 0, metadata !"", i32 0, i32 0, i64 0, i64 0, i64 0, i32 0, null, metadata !860, i32 0, i32 0} ; [ DW_TAG_subroutine_type ]
!860 = metadata !{null, metadata !861}
!861 = metadata !{i32 786447, i32 0, metadata !"", i32 0, i32 0, i64 64, i64 64, i64 0, i32 64, metadata !845} ; [ DW_TAG_pointer_type ]
!862 = metadata !{i32 786478, i32 0, metadata !845, metadata !"ap_int_base<33, true>", metadata !"ap_int_base<33, true>", metadata !"", metadata !63, i32 1450, metadata !863, i1 false, i1 false, i32 0, i32 0, null, i32 256, i1 false, null, metadata !867, i32 0, metadata !75, i32 1450} ; [ DW_TAG_subprogram ]
!863 = metadata !{i32 786453, i32 0, metadata !"", i32 0, i32 0, i64 0, i64 0, i64 0, i32 0, null, metadata !864, i32 0, i32 0} ; [ DW_TAG_subroutine_type ]
!864 = metadata !{null, metadata !861, metadata !865}
!865 = metadata !{i32 786448, null, null, null, i32 0, i64 0, i64 0, i64 0, i32 0, metadata !866} ; [ DW_TAG_reference_type ]
!866 = metadata !{i32 786470, null, metadata !"", null, i32 0, i64 0, i64 0, i64 0, i32 0, metadata !845} ; [ DW_TAG_const_type ]
!867 = metadata !{metadata !868, metadata !869}
!868 = metadata !{i32 786480, null, metadata !"_AP_W2", metadata !79, i64 33, null, i32 0, i32 0} ; [ DW_TAG_template_value_parameter ]
!869 = metadata !{i32 786480, null, metadata !"_AP_S2", metadata !81, i64 1, null, i32 0, i32 0} ; [ DW_TAG_template_value_parameter ]
!870 = metadata !{i32 786478, i32 0, metadata !845, metadata !"ap_int_base<33, true>", metadata !"ap_int_base<33, true>", metadata !"", metadata !63, i32 1453, metadata !871, i1 false, i1 false, i32 0, i32 0, null, i32 256, i1 false, null, metadata !867, i32 0, metadata !75, i32 1453} ; [ DW_TAG_subprogram ]
!871 = metadata !{i32 786453, i32 0, metadata !"", i32 0, i32 0, i64 0, i64 0, i64 0, i32 0, null, metadata !872, i32 0, i32 0} ; [ DW_TAG_subroutine_type ]
!872 = metadata !{null, metadata !861, metadata !873}
!873 = metadata !{i32 786448, null, null, null, i32 0, i64 0, i64 0, i64 0, i32 0, metadata !874} ; [ DW_TAG_reference_type ]
!874 = metadata !{i32 786470, null, metadata !"", null, i32 0, i64 0, i64 0, i64 0, i32 0, metadata !875} ; [ DW_TAG_const_type ]
!875 = metadata !{i32 786485, null, metadata !"", null, i32 0, i64 0, i64 0, i64 0, i32 0, metadata !845} ; [ DW_TAG_volatile_type ]
!876 = metadata !{i32 786478, i32 0, metadata !845, metadata !"ap_int_base", metadata !"ap_int_base", metadata !"", metadata !63, i32 1460, metadata !877, i1 false, i1 false, i32 0, i32 0, null, i32 384, i1 false, null, null, i32 0, metadata !75, i32 1460} ; [ DW_TAG_subprogram ]
!877 = metadata !{i32 786453, i32 0, metadata !"", i32 0, i32 0, i64 0, i64 0, i64 0, i32 0, null, metadata !878, i32 0, i32 0} ; [ DW_TAG_subroutine_type ]
!878 = metadata !{null, metadata !861, metadata !81}
!879 = metadata !{i32 786478, i32 0, metadata !845, metadata !"ap_int_base", metadata !"ap_int_base", metadata !"", metadata !63, i32 1461, metadata !880, i1 false, i1 false, i32 0, i32 0, null, i32 384, i1 false, null, null, i32 0, metadata !75, i32 1461} ; [ DW_TAG_subprogram ]
!880 = metadata !{i32 786453, i32 0, metadata !"", i32 0, i32 0, i64 0, i64 0, i64 0, i32 0, null, metadata !881, i32 0, i32 0} ; [ DW_TAG_subroutine_type ]
!881 = metadata !{null, metadata !861, metadata !92}
!882 = metadata !{i32 786478, i32 0, metadata !845, metadata !"ap_int_base", metadata !"ap_int_base", metadata !"", metadata !63, i32 1462, metadata !883, i1 false, i1 false, i32 0, i32 0, null, i32 384, i1 false, null, null, i32 0, metadata !75, i32 1462} ; [ DW_TAG_subprogram ]
!883 = metadata !{i32 786453, i32 0, metadata !"", i32 0, i32 0, i64 0, i64 0, i64 0, i32 0, null, metadata !884, i32 0, i32 0} ; [ DW_TAG_subroutine_type ]
!884 = metadata !{null, metadata !861, metadata !96}
!885 = metadata !{i32 786478, i32 0, metadata !845, metadata !"ap_int_base", metadata !"ap_int_base", metadata !"", metadata !63, i32 1463, metadata !886, i1 false, i1 false, i32 0, i32 0, null, i32 384, i1 false, null, null, i32 0, metadata !75, i32 1463} ; [ DW_TAG_subprogram ]
!886 = metadata !{i32 786453, i32 0, metadata !"", i32 0, i32 0, i64 0, i64 0, i64 0, i32 0, null, metadata !887, i32 0, i32 0} ; [ DW_TAG_subroutine_type ]
!887 = metadata !{null, metadata !861, metadata !100}
!888 = metadata !{i32 786478, i32 0, metadata !845, metadata !"ap_int_base", metadata !"ap_int_base", metadata !"", metadata !63, i32 1464, metadata !889, i1 false, i1 false, i32 0, i32 0, null, i32 384, i1 false, null, null, i32 0, metadata !75, i32 1464} ; [ DW_TAG_subprogram ]
!889 = metadata !{i32 786453, i32 0, metadata !"", i32 0, i32 0, i64 0, i64 0, i64 0, i32 0, null, metadata !890, i32 0, i32 0} ; [ DW_TAG_subroutine_type ]
!890 = metadata !{null, metadata !861, metadata !104}
!891 = metadata !{i32 786478, i32 0, metadata !845, metadata !"ap_int_base", metadata !"ap_int_base", metadata !"", metadata !63, i32 1465, metadata !892, i1 false, i1 false, i32 0, i32 0, null, i32 384, i1 false, null, null, i32 0, metadata !75, i32 1465} ; [ DW_TAG_subprogram ]
!892 = metadata !{i32 786453, i32 0, metadata !"", i32 0, i32 0, i64 0, i64 0, i64 0, i32 0, null, metadata !893, i32 0, i32 0} ; [ DW_TAG_subroutine_type ]
!893 = metadata !{null, metadata !861, metadata !79}
!894 = metadata !{i32 786478, i32 0, metadata !845, metadata !"ap_int_base", metadata !"ap_int_base", metadata !"", metadata !63, i32 1466, metadata !895, i1 false, i1 false, i32 0, i32 0, null, i32 384, i1 false, null, null, i32 0, metadata !75, i32 1466} ; [ DW_TAG_subprogram ]
!895 = metadata !{i32 786453, i32 0, metadata !"", i32 0, i32 0, i64 0, i64 0, i64 0, i32 0, null, metadata !896, i32 0, i32 0} ; [ DW_TAG_subroutine_type ]
!896 = metadata !{null, metadata !861, metadata !111}
!897 = metadata !{i32 786478, i32 0, metadata !845, metadata !"ap_int_base", metadata !"ap_int_base", metadata !"", metadata !63, i32 1467, metadata !898, i1 false, i1 false, i32 0, i32 0, null, i32 384, i1 false, null, null, i32 0, metadata !75, i32 1467} ; [ DW_TAG_subprogram ]
!898 = metadata !{i32 786453, i32 0, metadata !"", i32 0, i32 0, i64 0, i64 0, i64 0, i32 0, null, metadata !899, i32 0, i32 0} ; [ DW_TAG_subroutine_type ]
!899 = metadata !{null, metadata !861, metadata !115}
!900 = metadata !{i32 786478, i32 0, metadata !845, metadata !"ap_int_base", metadata !"ap_int_base", metadata !"", metadata !63, i32 1468, metadata !901, i1 false, i1 false, i32 0, i32 0, null, i32 384, i1 false, null, null, i32 0, metadata !75, i32 1468} ; [ DW_TAG_subprogram ]
!901 = metadata !{i32 786453, i32 0, metadata !"", i32 0, i32 0, i64 0, i64 0, i64 0, i32 0, null, metadata !902, i32 0, i32 0} ; [ DW_TAG_subroutine_type ]
!902 = metadata !{null, metadata !861, metadata !119}
!903 = metadata !{i32 786478, i32 0, metadata !845, metadata !"ap_int_base", metadata !"ap_int_base", metadata !"", metadata !63, i32 1469, metadata !904, i1 false, i1 false, i32 0, i32 0, null, i32 384, i1 false, null, null, i32 0, metadata !75, i32 1469} ; [ DW_TAG_subprogram ]
!904 = metadata !{i32 786453, i32 0, metadata !"", i32 0, i32 0, i64 0, i64 0, i64 0, i32 0, null, metadata !905, i32 0, i32 0} ; [ DW_TAG_subroutine_type ]
!905 = metadata !{null, metadata !861, metadata !123}
!906 = metadata !{i32 786478, i32 0, metadata !845, metadata !"ap_int_base", metadata !"ap_int_base", metadata !"", metadata !63, i32 1470, metadata !907, i1 false, i1 false, i32 0, i32 0, null, i32 384, i1 false, null, null, i32 0, metadata !75, i32 1470} ; [ DW_TAG_subprogram ]
!907 = metadata !{i32 786453, i32 0, metadata !"", i32 0, i32 0, i64 0, i64 0, i64 0, i32 0, null, metadata !908, i32 0, i32 0} ; [ DW_TAG_subroutine_type ]
!908 = metadata !{null, metadata !861, metadata !128}
!909 = metadata !{i32 786478, i32 0, metadata !845, metadata !"ap_int_base", metadata !"ap_int_base", metadata !"", metadata !63, i32 1471, metadata !910, i1 false, i1 false, i32 0, i32 0, null, i32 384, i1 false, null, null, i32 0, metadata !75, i32 1471} ; [ DW_TAG_subprogram ]
!910 = metadata !{i32 786453, i32 0, metadata !"", i32 0, i32 0, i64 0, i64 0, i64 0, i32 0, null, metadata !911, i32 0, i32 0} ; [ DW_TAG_subroutine_type ]
!911 = metadata !{null, metadata !861, metadata !133}
!912 = metadata !{i32 786478, i32 0, metadata !845, metadata !"ap_int_base", metadata !"ap_int_base", metadata !"", metadata !63, i32 1472, metadata !913, i1 false, i1 false, i32 0, i32 0, null, i32 384, i1 false, null, null, i32 0, metadata !75, i32 1472} ; [ DW_TAG_subprogram ]
!913 = metadata !{i32 786453, i32 0, metadata !"", i32 0, i32 0, i64 0, i64 0, i64 0, i32 0, null, metadata !914, i32 0, i32 0} ; [ DW_TAG_subroutine_type ]
!914 = metadata !{null, metadata !861, metadata !137}
!915 = metadata !{i32 786478, i32 0, metadata !845, metadata !"ap_int_base", metadata !"ap_int_base", metadata !"", metadata !63, i32 1499, metadata !916, i1 false, i1 false, i32 0, i32 0, null, i32 256, i1 false, null, null, i32 0, metadata !75, i32 1499} ; [ DW_TAG_subprogram ]
!916 = metadata !{i32 786453, i32 0, metadata !"", i32 0, i32 0, i64 0, i64 0, i64 0, i32 0, null, metadata !917, i32 0, i32 0} ; [ DW_TAG_subroutine_type ]
!917 = metadata !{null, metadata !861, metadata !141}
!918 = metadata !{i32 786478, i32 0, metadata !845, metadata !"ap_int_base", metadata !"ap_int_base", metadata !"", metadata !63, i32 1506, metadata !919, i1 false, i1 false, i32 0, i32 0, null, i32 256, i1 false, null, null, i32 0, metadata !75, i32 1506} ; [ DW_TAG_subprogram ]
!919 = metadata !{i32 786453, i32 0, metadata !"", i32 0, i32 0, i64 0, i64 0, i64 0, i32 0, null, metadata !920, i32 0, i32 0} ; [ DW_TAG_subroutine_type ]
!920 = metadata !{null, metadata !861, metadata !141, metadata !92}
!921 = metadata !{i32 786478, i32 0, metadata !845, metadata !"read", metadata !"read", metadata !"_ZNV11ap_int_baseILi33ELb1ELb1EE4readEv", metadata !63, i32 1527, metadata !922, i1 false, i1 false, i32 0, i32 0, null, i32 256, i1 false, null, null, i32 0, metadata !75, i32 1527} ; [ DW_TAG_subprogram ]
!922 = metadata !{i32 786453, i32 0, metadata !"", i32 0, i32 0, i64 0, i64 0, i64 0, i32 0, null, metadata !923, i32 0, i32 0} ; [ DW_TAG_subroutine_type ]
!923 = metadata !{metadata !845, metadata !924}
!924 = metadata !{i32 786447, i32 0, metadata !"", i32 0, i32 0, i64 64, i64 64, i64 0, i32 64, metadata !875} ; [ DW_TAG_pointer_type ]
!925 = metadata !{i32 786478, i32 0, metadata !845, metadata !"write", metadata !"write", metadata !"_ZNV11ap_int_baseILi33ELb1ELb1EE5writeERKS0_", metadata !63, i32 1533, metadata !926, i1 false, i1 false, i32 0, i32 0, null, i32 256, i1 false, null, null, i32 0, metadata !75, i32 1533} ; [ DW_TAG_subprogram ]
!926 = metadata !{i32 786453, i32 0, metadata !"", i32 0, i32 0, i64 0, i64 0, i64 0, i32 0, null, metadata !927, i32 0, i32 0} ; [ DW_TAG_subroutine_type ]
!927 = metadata !{null, metadata !924, metadata !865}
!928 = metadata !{i32 786478, i32 0, metadata !845, metadata !"operator=", metadata !"operator=", metadata !"_ZNV11ap_int_baseILi33ELb1ELb1EEaSERVKS0_", metadata !63, i32 1545, metadata !929, i1 false, i1 false, i32 0, i32 0, null, i32 256, i1 false, null, null, i32 0, metadata !75, i32 1545} ; [ DW_TAG_subprogram ]
!929 = metadata !{i32 786453, i32 0, metadata !"", i32 0, i32 0, i64 0, i64 0, i64 0, i32 0, null, metadata !930, i32 0, i32 0} ; [ DW_TAG_subroutine_type ]
!930 = metadata !{null, metadata !924, metadata !873}
!931 = metadata !{i32 786478, i32 0, metadata !845, metadata !"operator=", metadata !"operator=", metadata !"_ZNV11ap_int_baseILi33ELb1ELb1EEaSERKS0_", metadata !63, i32 1554, metadata !926, i1 false, i1 false, i32 0, i32 0, null, i32 256, i1 false, null, null, i32 0, metadata !75, i32 1554} ; [ DW_TAG_subprogram ]
!932 = metadata !{i32 786478, i32 0, metadata !845, metadata !"operator=", metadata !"operator=", metadata !"_ZN11ap_int_baseILi33ELb1ELb1EEaSERVKS0_", metadata !63, i32 1577, metadata !933, i1 false, i1 false, i32 0, i32 0, null, i32 256, i1 false, null, null, i32 0, metadata !75, i32 1577} ; [ DW_TAG_subprogram ]
!933 = metadata !{i32 786453, i32 0, metadata !"", i32 0, i32 0, i64 0, i64 0, i64 0, i32 0, null, metadata !934, i32 0, i32 0} ; [ DW_TAG_subroutine_type ]
!934 = metadata !{metadata !935, metadata !861, metadata !873}
!935 = metadata !{i32 786448, null, null, null, i32 0, i64 0, i64 0, i64 0, i32 0, metadata !845} ; [ DW_TAG_reference_type ]
!936 = metadata !{i32 786478, i32 0, metadata !845, metadata !"operator=", metadata !"operator=", metadata !"_ZN11ap_int_baseILi33ELb1ELb1EEaSERKS0_", metadata !63, i32 1582, metadata !937, i1 false, i1 false, i32 0, i32 0, null, i32 256, i1 false, null, null, i32 0, metadata !75, i32 1582} ; [ DW_TAG_subprogram ]
!937 = metadata !{i32 786453, i32 0, metadata !"", i32 0, i32 0, i64 0, i64 0, i64 0, i32 0, null, metadata !938, i32 0, i32 0} ; [ DW_TAG_subroutine_type ]
!938 = metadata !{metadata !935, metadata !861, metadata !865}
!939 = metadata !{i32 786478, i32 0, metadata !845, metadata !"operator=", metadata !"operator=", metadata !"_ZN11ap_int_baseILi33ELb1ELb1EEaSEPKc", metadata !63, i32 1586, metadata !940, i1 false, i1 false, i32 0, i32 0, null, i32 256, i1 false, null, null, i32 0, metadata !75, i32 1586} ; [ DW_TAG_subprogram ]
!940 = metadata !{i32 786453, i32 0, metadata !"", i32 0, i32 0, i64 0, i64 0, i64 0, i32 0, null, metadata !941, i32 0, i32 0} ; [ DW_TAG_subroutine_type ]
!941 = metadata !{metadata !935, metadata !861, metadata !141}
!942 = metadata !{i32 786478, i32 0, metadata !845, metadata !"set", metadata !"set", metadata !"_ZN11ap_int_baseILi33ELb1ELb1EE3setEPKca", metadata !63, i32 1594, metadata !943, i1 false, i1 false, i32 0, i32 0, null, i32 256, i1 false, null, null, i32 0, metadata !75, i32 1594} ; [ DW_TAG_subprogram ]
!943 = metadata !{i32 786453, i32 0, metadata !"", i32 0, i32 0, i64 0, i64 0, i64 0, i32 0, null, metadata !944, i32 0, i32 0} ; [ DW_TAG_subroutine_type ]
!944 = metadata !{metadata !935, metadata !861, metadata !141, metadata !92}
!945 = metadata !{i32 786478, i32 0, metadata !845, metadata !"operator=", metadata !"operator=", metadata !"_ZN11ap_int_baseILi33ELb1ELb1EEaSEa", metadata !63, i32 1608, metadata !946, i1 false, i1 false, i32 0, i32 0, null, i32 256, i1 false, null, null, i32 0, metadata !75, i32 1608} ; [ DW_TAG_subprogram ]
!946 = metadata !{i32 786453, i32 0, metadata !"", i32 0, i32 0, i64 0, i64 0, i64 0, i32 0, null, metadata !947, i32 0, i32 0} ; [ DW_TAG_subroutine_type ]
!947 = metadata !{metadata !935, metadata !861, metadata !92}
!948 = metadata !{i32 786478, i32 0, metadata !845, metadata !"operator=", metadata !"operator=", metadata !"_ZN11ap_int_baseILi33ELb1ELb1EEaSEh", metadata !63, i32 1609, metadata !949, i1 false, i1 false, i32 0, i32 0, null, i32 256, i1 false, null, null, i32 0, metadata !75, i32 1609} ; [ DW_TAG_subprogram ]
!949 = metadata !{i32 786453, i32 0, metadata !"", i32 0, i32 0, i64 0, i64 0, i64 0, i32 0, null, metadata !950, i32 0, i32 0} ; [ DW_TAG_subroutine_type ]
!950 = metadata !{metadata !935, metadata !861, metadata !96}
!951 = metadata !{i32 786478, i32 0, metadata !845, metadata !"operator=", metadata !"operator=", metadata !"_ZN11ap_int_baseILi33ELb1ELb1EEaSEs", metadata !63, i32 1610, metadata !952, i1 false, i1 false, i32 0, i32 0, null, i32 256, i1 false, null, null, i32 0, metadata !75, i32 1610} ; [ DW_TAG_subprogram ]
!952 = metadata !{i32 786453, i32 0, metadata !"", i32 0, i32 0, i64 0, i64 0, i64 0, i32 0, null, metadata !953, i32 0, i32 0} ; [ DW_TAG_subroutine_type ]
!953 = metadata !{metadata !935, metadata !861, metadata !100}
!954 = metadata !{i32 786478, i32 0, metadata !845, metadata !"operator=", metadata !"operator=", metadata !"_ZN11ap_int_baseILi33ELb1ELb1EEaSEt", metadata !63, i32 1611, metadata !955, i1 false, i1 false, i32 0, i32 0, null, i32 256, i1 false, null, null, i32 0, metadata !75, i32 1611} ; [ DW_TAG_subprogram ]
!955 = metadata !{i32 786453, i32 0, metadata !"", i32 0, i32 0, i64 0, i64 0, i64 0, i32 0, null, metadata !956, i32 0, i32 0} ; [ DW_TAG_subroutine_type ]
!956 = metadata !{metadata !935, metadata !861, metadata !104}
!957 = metadata !{i32 786478, i32 0, metadata !845, metadata !"operator=", metadata !"operator=", metadata !"_ZN11ap_int_baseILi33ELb1ELb1EEaSEi", metadata !63, i32 1612, metadata !958, i1 false, i1 false, i32 0, i32 0, null, i32 256, i1 false, null, null, i32 0, metadata !75, i32 1612} ; [ DW_TAG_subprogram ]
!958 = metadata !{i32 786453, i32 0, metadata !"", i32 0, i32 0, i64 0, i64 0, i64 0, i32 0, null, metadata !959, i32 0, i32 0} ; [ DW_TAG_subroutine_type ]
!959 = metadata !{metadata !935, metadata !861, metadata !79}
!960 = metadata !{i32 786478, i32 0, metadata !845, metadata !"operator=", metadata !"operator=", metadata !"_ZN11ap_int_baseILi33ELb1ELb1EEaSEj", metadata !63, i32 1613, metadata !961, i1 false, i1 false, i32 0, i32 0, null, i32 256, i1 false, null, null, i32 0, metadata !75, i32 1613} ; [ DW_TAG_subprogram ]
!961 = metadata !{i32 786453, i32 0, metadata !"", i32 0, i32 0, i64 0, i64 0, i64 0, i32 0, null, metadata !962, i32 0, i32 0} ; [ DW_TAG_subroutine_type ]
!962 = metadata !{metadata !935, metadata !861, metadata !111}
!963 = metadata !{i32 786478, i32 0, metadata !845, metadata !"operator=", metadata !"operator=", metadata !"_ZN11ap_int_baseILi33ELb1ELb1EEaSEx", metadata !63, i32 1614, metadata !964, i1 false, i1 false, i32 0, i32 0, null, i32 256, i1 false, null, null, i32 0, metadata !75, i32 1614} ; [ DW_TAG_subprogram ]
!964 = metadata !{i32 786453, i32 0, metadata !"", i32 0, i32 0, i64 0, i64 0, i64 0, i32 0, null, metadata !965, i32 0, i32 0} ; [ DW_TAG_subroutine_type ]
!965 = metadata !{metadata !935, metadata !861, metadata !123}
!966 = metadata !{i32 786478, i32 0, metadata !845, metadata !"operator=", metadata !"operator=", metadata !"_ZN11ap_int_baseILi33ELb1ELb1EEaSEy", metadata !63, i32 1615, metadata !967, i1 false, i1 false, i32 0, i32 0, null, i32 256, i1 false, null, null, i32 0, metadata !75, i32 1615} ; [ DW_TAG_subprogram ]
!967 = metadata !{i32 786453, i32 0, metadata !"", i32 0, i32 0, i64 0, i64 0, i64 0, i32 0, null, metadata !968, i32 0, i32 0} ; [ DW_TAG_subroutine_type ]
!968 = metadata !{metadata !935, metadata !861, metadata !128}
!969 = metadata !{i32 786478, i32 0, metadata !845, metadata !"operator long long", metadata !"operator long long", metadata !"_ZNK11ap_int_baseILi33ELb1ELb1EEcvxEv", metadata !63, i32 1653, metadata !970, i1 false, i1 false, i32 0, i32 0, null, i32 256, i1 false, null, null, i32 0, metadata !75, i32 1653} ; [ DW_TAG_subprogram ]
!970 = metadata !{i32 786453, i32 0, metadata !"", i32 0, i32 0, i64 0, i64 0, i64 0, i32 0, null, metadata !971, i32 0, i32 0} ; [ DW_TAG_subroutine_type ]
!971 = metadata !{metadata !972, metadata !977}
!972 = metadata !{i32 786454, metadata !845, metadata !"RetType", metadata !63, i32 1402, i64 0, i64 0, i64 0, i32 0, metadata !973} ; [ DW_TAG_typedef ]
!973 = metadata !{i32 786454, metadata !974, metadata !"Type", metadata !63, i32 1359, i64 0, i64 0, i64 0, i32 0, metadata !123} ; [ DW_TAG_typedef ]
!974 = metadata !{i32 786434, null, metadata !"retval<5, true>", metadata !63, i32 1358, i64 8, i64 8, i32 0, i32 0, null, metadata !206, i32 0, null, metadata !975} ; [ DW_TAG_class_type ]
!975 = metadata !{metadata !976, metadata !499}
!976 = metadata !{i32 786480, null, metadata !"_AP_N", metadata !79, i64 5, null, i32 0, i32 0} ; [ DW_TAG_template_value_parameter ]
!977 = metadata !{i32 786447, i32 0, metadata !"", i32 0, i32 0, i64 64, i64 64, i64 0, i32 64, metadata !866} ; [ DW_TAG_pointer_type ]
!978 = metadata !{i32 786478, i32 0, metadata !845, metadata !"to_bool", metadata !"to_bool", metadata !"_ZNK11ap_int_baseILi33ELb1ELb1EE7to_boolEv", metadata !63, i32 1659, metadata !979, i1 false, i1 false, i32 0, i32 0, null, i32 256, i1 false, null, null, i32 0, metadata !75, i32 1659} ; [ DW_TAG_subprogram ]
!979 = metadata !{i32 786453, i32 0, metadata !"", i32 0, i32 0, i64 0, i64 0, i64 0, i32 0, null, metadata !980, i32 0, i32 0} ; [ DW_TAG_subroutine_type ]
!980 = metadata !{metadata !81, metadata !977}
!981 = metadata !{i32 786478, i32 0, metadata !845, metadata !"to_uchar", metadata !"to_uchar", metadata !"_ZNK11ap_int_baseILi33ELb1ELb1EE8to_ucharEv", metadata !63, i32 1660, metadata !982, i1 false, i1 false, i32 0, i32 0, null, i32 256, i1 false, null, null, i32 0, metadata !75, i32 1660} ; [ DW_TAG_subprogram ]
!982 = metadata !{i32 786453, i32 0, metadata !"", i32 0, i32 0, i64 0, i64 0, i64 0, i32 0, null, metadata !983, i32 0, i32 0} ; [ DW_TAG_subroutine_type ]
!983 = metadata !{metadata !96, metadata !977}
!984 = metadata !{i32 786478, i32 0, metadata !845, metadata !"to_char", metadata !"to_char", metadata !"_ZNK11ap_int_baseILi33ELb1ELb1EE7to_charEv", metadata !63, i32 1661, metadata !985, i1 false, i1 false, i32 0, i32 0, null, i32 256, i1 false, null, null, i32 0, metadata !75, i32 1661} ; [ DW_TAG_subprogram ]
!985 = metadata !{i32 786453, i32 0, metadata !"", i32 0, i32 0, i64 0, i64 0, i64 0, i32 0, null, metadata !986, i32 0, i32 0} ; [ DW_TAG_subroutine_type ]
!986 = metadata !{metadata !92, metadata !977}
!987 = metadata !{i32 786478, i32 0, metadata !845, metadata !"to_ushort", metadata !"to_ushort", metadata !"_ZNK11ap_int_baseILi33ELb1ELb1EE9to_ushortEv", metadata !63, i32 1662, metadata !988, i1 false, i1 false, i32 0, i32 0, null, i32 256, i1 false, null, null, i32 0, metadata !75, i32 1662} ; [ DW_TAG_subprogram ]
!988 = metadata !{i32 786453, i32 0, metadata !"", i32 0, i32 0, i64 0, i64 0, i64 0, i32 0, null, metadata !989, i32 0, i32 0} ; [ DW_TAG_subroutine_type ]
!989 = metadata !{metadata !104, metadata !977}
!990 = metadata !{i32 786478, i32 0, metadata !845, metadata !"to_short", metadata !"to_short", metadata !"_ZNK11ap_int_baseILi33ELb1ELb1EE8to_shortEv", metadata !63, i32 1663, metadata !991, i1 false, i1 false, i32 0, i32 0, null, i32 256, i1 false, null, null, i32 0, metadata !75, i32 1663} ; [ DW_TAG_subprogram ]
!991 = metadata !{i32 786453, i32 0, metadata !"", i32 0, i32 0, i64 0, i64 0, i64 0, i32 0, null, metadata !992, i32 0, i32 0} ; [ DW_TAG_subroutine_type ]
!992 = metadata !{metadata !100, metadata !977}
!993 = metadata !{i32 786478, i32 0, metadata !845, metadata !"to_int", metadata !"to_int", metadata !"_ZNK11ap_int_baseILi33ELb1ELb1EE6to_intEv", metadata !63, i32 1664, metadata !994, i1 false, i1 false, i32 0, i32 0, null, i32 256, i1 false, null, null, i32 0, metadata !75, i32 1664} ; [ DW_TAG_subprogram ]
!994 = metadata !{i32 786453, i32 0, metadata !"", i32 0, i32 0, i64 0, i64 0, i64 0, i32 0, null, metadata !995, i32 0, i32 0} ; [ DW_TAG_subroutine_type ]
!995 = metadata !{metadata !79, metadata !977}
!996 = metadata !{i32 786478, i32 0, metadata !845, metadata !"to_uint", metadata !"to_uint", metadata !"_ZNK11ap_int_baseILi33ELb1ELb1EE7to_uintEv", metadata !63, i32 1665, metadata !997, i1 false, i1 false, i32 0, i32 0, null, i32 256, i1 false, null, null, i32 0, metadata !75, i32 1665} ; [ DW_TAG_subprogram ]
!997 = metadata !{i32 786453, i32 0, metadata !"", i32 0, i32 0, i64 0, i64 0, i64 0, i32 0, null, metadata !998, i32 0, i32 0} ; [ DW_TAG_subroutine_type ]
!998 = metadata !{metadata !111, metadata !977}
!999 = metadata !{i32 786478, i32 0, metadata !845, metadata !"to_long", metadata !"to_long", metadata !"_ZNK11ap_int_baseILi33ELb1ELb1EE7to_longEv", metadata !63, i32 1666, metadata !1000, i1 false, i1 false, i32 0, i32 0, null, i32 256, i1 false, null, null, i32 0, metadata !75, i32 1666} ; [ DW_TAG_subprogram ]
!1000 = metadata !{i32 786453, i32 0, metadata !"", i32 0, i32 0, i64 0, i64 0, i64 0, i32 0, null, metadata !1001, i32 0, i32 0} ; [ DW_TAG_subroutine_type ]
!1001 = metadata !{metadata !115, metadata !977}
!1002 = metadata !{i32 786478, i32 0, metadata !845, metadata !"to_ulong", metadata !"to_ulong", metadata !"_ZNK11ap_int_baseILi33ELb1ELb1EE8to_ulongEv", metadata !63, i32 1667, metadata !1003, i1 false, i1 false, i32 0, i32 0, null, i32 256, i1 false, null, null, i32 0, metadata !75, i32 1667} ; [ DW_TAG_subprogram ]
!1003 = metadata !{i32 786453, i32 0, metadata !"", i32 0, i32 0, i64 0, i64 0, i64 0, i32 0, null, metadata !1004, i32 0, i32 0} ; [ DW_TAG_subroutine_type ]
!1004 = metadata !{metadata !119, metadata !977}
!1005 = metadata !{i32 786478, i32 0, metadata !845, metadata !"to_int64", metadata !"to_int64", metadata !"_ZNK11ap_int_baseILi33ELb1ELb1EE8to_int64Ev", metadata !63, i32 1668, metadata !1006, i1 false, i1 false, i32 0, i32 0, null, i32 256, i1 false, null, null, i32 0, metadata !75, i32 1668} ; [ DW_TAG_subprogram ]
!1006 = metadata !{i32 786453, i32 0, metadata !"", i32 0, i32 0, i64 0, i64 0, i64 0, i32 0, null, metadata !1007, i32 0, i32 0} ; [ DW_TAG_subroutine_type ]
!1007 = metadata !{metadata !123, metadata !977}
!1008 = metadata !{i32 786478, i32 0, metadata !845, metadata !"to_uint64", metadata !"to_uint64", metadata !"_ZNK11ap_int_baseILi33ELb1ELb1EE9to_uint64Ev", metadata !63, i32 1669, metadata !1009, i1 false, i1 false, i32 0, i32 0, null, i32 256, i1 false, null, null, i32 0, metadata !75, i32 1669} ; [ DW_TAG_subprogram ]
!1009 = metadata !{i32 786453, i32 0, metadata !"", i32 0, i32 0, i64 0, i64 0, i64 0, i32 0, null, metadata !1010, i32 0, i32 0} ; [ DW_TAG_subroutine_type ]
!1010 = metadata !{metadata !128, metadata !977}
!1011 = metadata !{i32 786478, i32 0, metadata !845, metadata !"to_double", metadata !"to_double", metadata !"_ZNK11ap_int_baseILi33ELb1ELb1EE9to_doubleEv", metadata !63, i32 1670, metadata !1012, i1 false, i1 false, i32 0, i32 0, null, i32 256, i1 false, null, null, i32 0, metadata !75, i32 1670} ; [ DW_TAG_subprogram ]
!1012 = metadata !{i32 786453, i32 0, metadata !"", i32 0, i32 0, i64 0, i64 0, i64 0, i32 0, null, metadata !1013, i32 0, i32 0} ; [ DW_TAG_subroutine_type ]
!1013 = metadata !{metadata !137, metadata !977}
!1014 = metadata !{i32 786478, i32 0, metadata !845, metadata !"length", metadata !"length", metadata !"_ZNK11ap_int_baseILi33ELb1ELb1EE6lengthEv", metadata !63, i32 1684, metadata !994, i1 false, i1 false, i32 0, i32 0, null, i32 256, i1 false, null, null, i32 0, metadata !75, i32 1684} ; [ DW_TAG_subprogram ]
!1015 = metadata !{i32 786478, i32 0, metadata !845, metadata !"length", metadata !"length", metadata !"_ZNVK11ap_int_baseILi33ELb1ELb1EE6lengthEv", metadata !63, i32 1685, metadata !1016, i1 false, i1 false, i32 0, i32 0, null, i32 256, i1 false, null, null, i32 0, metadata !75, i32 1685} ; [ DW_TAG_subprogram ]
!1016 = metadata !{i32 786453, i32 0, metadata !"", i32 0, i32 0, i64 0, i64 0, i64 0, i32 0, null, metadata !1017, i32 0, i32 0} ; [ DW_TAG_subroutine_type ]
!1017 = metadata !{metadata !79, metadata !1018}
!1018 = metadata !{i32 786447, i32 0, metadata !"", i32 0, i32 0, i64 64, i64 64, i64 0, i32 64, metadata !874} ; [ DW_TAG_pointer_type ]
!1019 = metadata !{i32 786478, i32 0, metadata !845, metadata !"reverse", metadata !"reverse", metadata !"_ZN11ap_int_baseILi33ELb1ELb1EE7reverseEv", metadata !63, i32 1690, metadata !1020, i1 false, i1 false, i32 0, i32 0, null, i32 256, i1 false, null, null, i32 0, metadata !75, i32 1690} ; [ DW_TAG_subprogram ]
!1020 = metadata !{i32 786453, i32 0, metadata !"", i32 0, i32 0, i64 0, i64 0, i64 0, i32 0, null, metadata !1021, i32 0, i32 0} ; [ DW_TAG_subroutine_type ]
!1021 = metadata !{metadata !935, metadata !861}
!1022 = metadata !{i32 786478, i32 0, metadata !845, metadata !"iszero", metadata !"iszero", metadata !"_ZNK11ap_int_baseILi33ELb1ELb1EE6iszeroEv", metadata !63, i32 1696, metadata !979, i1 false, i1 false, i32 0, i32 0, null, i32 256, i1 false, null, null, i32 0, metadata !75, i32 1696} ; [ DW_TAG_subprogram ]
!1023 = metadata !{i32 786478, i32 0, metadata !845, metadata !"is_zero", metadata !"is_zero", metadata !"_ZNK11ap_int_baseILi33ELb1ELb1EE7is_zeroEv", metadata !63, i32 1701, metadata !979, i1 false, i1 false, i32 0, i32 0, null, i32 256, i1 false, null, null, i32 0, metadata !75, i32 1701} ; [ DW_TAG_subprogram ]
!1024 = metadata !{i32 786478, i32 0, metadata !845, metadata !"sign", metadata !"sign", metadata !"_ZNK11ap_int_baseILi33ELb1ELb1EE4signEv", metadata !63, i32 1706, metadata !979, i1 false, i1 false, i32 0, i32 0, null, i32 256, i1 false, null, null, i32 0, metadata !75, i32 1706} ; [ DW_TAG_subprogram ]
!1025 = metadata !{i32 786478, i32 0, metadata !845, metadata !"clear", metadata !"clear", metadata !"_ZN11ap_int_baseILi33ELb1ELb1EE5clearEi", metadata !63, i32 1714, metadata !892, i1 false, i1 false, i32 0, i32 0, null, i32 256, i1 false, null, null, i32 0, metadata !75, i32 1714} ; [ DW_TAG_subprogram ]
!1026 = metadata !{i32 786478, i32 0, metadata !845, metadata !"invert", metadata !"invert", metadata !"_ZN11ap_int_baseILi33ELb1ELb1EE6invertEi", metadata !63, i32 1720, metadata !892, i1 false, i1 false, i32 0, i32 0, null, i32 256, i1 false, null, null, i32 0, metadata !75, i32 1720} ; [ DW_TAG_subprogram ]
!1027 = metadata !{i32 786478, i32 0, metadata !845, metadata !"test", metadata !"test", metadata !"_ZNK11ap_int_baseILi33ELb1ELb1EE4testEi", metadata !63, i32 1728, metadata !1028, i1 false, i1 false, i32 0, i32 0, null, i32 256, i1 false, null, null, i32 0, metadata !75, i32 1728} ; [ DW_TAG_subprogram ]
!1028 = metadata !{i32 786453, i32 0, metadata !"", i32 0, i32 0, i64 0, i64 0, i64 0, i32 0, null, metadata !1029, i32 0, i32 0} ; [ DW_TAG_subroutine_type ]
!1029 = metadata !{metadata !81, metadata !977, metadata !79}
!1030 = metadata !{i32 786478, i32 0, metadata !845, metadata !"set", metadata !"set", metadata !"_ZN11ap_int_baseILi33ELb1ELb1EE3setEi", metadata !63, i32 1734, metadata !892, i1 false, i1 false, i32 0, i32 0, null, i32 256, i1 false, null, null, i32 0, metadata !75, i32 1734} ; [ DW_TAG_subprogram ]
!1031 = metadata !{i32 786478, i32 0, metadata !845, metadata !"set", metadata !"set", metadata !"_ZN11ap_int_baseILi33ELb1ELb1EE3setEib", metadata !63, i32 1740, metadata !1032, i1 false, i1 false, i32 0, i32 0, null, i32 256, i1 false, null, null, i32 0, metadata !75, i32 1740} ; [ DW_TAG_subprogram ]
!1032 = metadata !{i32 786453, i32 0, metadata !"", i32 0, i32 0, i64 0, i64 0, i64 0, i32 0, null, metadata !1033, i32 0, i32 0} ; [ DW_TAG_subroutine_type ]
!1033 = metadata !{null, metadata !861, metadata !79, metadata !81}
!1034 = metadata !{i32 786478, i32 0, metadata !845, metadata !"lrotate", metadata !"lrotate", metadata !"_ZN11ap_int_baseILi33ELb1ELb1EE7lrotateEi", metadata !63, i32 1747, metadata !892, i1 false, i1 false, i32 0, i32 0, null, i32 256, i1 false, null, null, i32 0, metadata !75, i32 1747} ; [ DW_TAG_subprogram ]
!1035 = metadata !{i32 786478, i32 0, metadata !845, metadata !"rrotate", metadata !"rrotate", metadata !"_ZN11ap_int_baseILi33ELb1ELb1EE7rrotateEi", metadata !63, i32 1756, metadata !892, i1 false, i1 false, i32 0, i32 0, null, i32 256, i1 false, null, null, i32 0, metadata !75, i32 1756} ; [ DW_TAG_subprogram ]
!1036 = metadata !{i32 786478, i32 0, metadata !845, metadata !"set_bit", metadata !"set_bit", metadata !"_ZN11ap_int_baseILi33ELb1ELb1EE7set_bitEib", metadata !63, i32 1764, metadata !1032, i1 false, i1 false, i32 0, i32 0, null, i32 256, i1 false, null, null, i32 0, metadata !75, i32 1764} ; [ DW_TAG_subprogram ]
!1037 = metadata !{i32 786478, i32 0, metadata !845, metadata !"get_bit", metadata !"get_bit", metadata !"_ZNK11ap_int_baseILi33ELb1ELb1EE7get_bitEi", metadata !63, i32 1769, metadata !1028, i1 false, i1 false, i32 0, i32 0, null, i32 256, i1 false, null, null, i32 0, metadata !75, i32 1769} ; [ DW_TAG_subprogram ]
!1038 = metadata !{i32 786478, i32 0, metadata !845, metadata !"b_not", metadata !"b_not", metadata !"_ZN11ap_int_baseILi33ELb1ELb1EE5b_notEv", metadata !63, i32 1774, metadata !859, i1 false, i1 false, i32 0, i32 0, null, i32 256, i1 false, null, null, i32 0, metadata !75, i32 1774} ; [ DW_TAG_subprogram ]
!1039 = metadata !{i32 786478, i32 0, metadata !845, metadata !"countLeadingZeros", metadata !"countLeadingZeros", metadata !"_ZN11ap_int_baseILi33ELb1ELb1EE17countLeadingZerosEv", metadata !63, i32 1781, metadata !1040, i1 false, i1 false, i32 0, i32 0, null, i32 256, i1 false, null, null, i32 0, metadata !75, i32 1781} ; [ DW_TAG_subprogram ]
!1040 = metadata !{i32 786453, i32 0, metadata !"", i32 0, i32 0, i64 0, i64 0, i64 0, i32 0, null, metadata !1041, i32 0, i32 0} ; [ DW_TAG_subroutine_type ]
!1041 = metadata !{metadata !79, metadata !861}
!1042 = metadata !{i32 786478, i32 0, metadata !845, metadata !"operator++", metadata !"operator++", metadata !"_ZN11ap_int_baseILi33ELb1ELb1EEppEv", metadata !63, i32 1838, metadata !1020, i1 false, i1 false, i32 0, i32 0, null, i32 256, i1 false, null, null, i32 0, metadata !75, i32 1838} ; [ DW_TAG_subprogram ]
!1043 = metadata !{i32 786478, i32 0, metadata !845, metadata !"operator--", metadata !"operator--", metadata !"_ZN11ap_int_baseILi33ELb1ELb1EEmmEv", metadata !63, i32 1842, metadata !1020, i1 false, i1 false, i32 0, i32 0, null, i32 256, i1 false, null, null, i32 0, metadata !75, i32 1842} ; [ DW_TAG_subprogram ]
!1044 = metadata !{i32 786478, i32 0, metadata !845, metadata !"operator++", metadata !"operator++", metadata !"_ZN11ap_int_baseILi33ELb1ELb1EEppEi", metadata !63, i32 1850, metadata !1045, i1 false, i1 false, i32 0, i32 0, null, i32 256, i1 false, null, null, i32 0, metadata !75, i32 1850} ; [ DW_TAG_subprogram ]
!1045 = metadata !{i32 786453, i32 0, metadata !"", i32 0, i32 0, i64 0, i64 0, i64 0, i32 0, null, metadata !1046, i32 0, i32 0} ; [ DW_TAG_subroutine_type ]
!1046 = metadata !{metadata !866, metadata !861, metadata !79}
!1047 = metadata !{i32 786478, i32 0, metadata !845, metadata !"operator--", metadata !"operator--", metadata !"_ZN11ap_int_baseILi33ELb1ELb1EEmmEi", metadata !63, i32 1855, metadata !1045, i1 false, i1 false, i32 0, i32 0, null, i32 256, i1 false, null, null, i32 0, metadata !75, i32 1855} ; [ DW_TAG_subprogram ]
!1048 = metadata !{i32 786478, i32 0, metadata !845, metadata !"operator+", metadata !"operator+", metadata !"_ZNK11ap_int_baseILi33ELb1ELb1EEpsEv", metadata !63, i32 1864, metadata !1049, i1 false, i1 false, i32 0, i32 0, null, i32 256, i1 false, null, null, i32 0, metadata !75, i32 1864} ; [ DW_TAG_subprogram ]
!1049 = metadata !{i32 786453, i32 0, metadata !"", i32 0, i32 0, i64 0, i64 0, i64 0, i32 0, null, metadata !1050, i32 0, i32 0} ; [ DW_TAG_subroutine_type ]
!1050 = metadata !{metadata !845, metadata !977}
!1051 = metadata !{i32 786478, i32 0, metadata !845, metadata !"operator!", metadata !"operator!", metadata !"_ZNK11ap_int_baseILi33ELb1ELb1EEntEv", metadata !63, i32 1870, metadata !979, i1 false, i1 false, i32 0, i32 0, null, i32 256, i1 false, null, null, i32 0, metadata !75, i32 1870} ; [ DW_TAG_subprogram ]
!1052 = metadata !{i32 786478, i32 0, metadata !845, metadata !"operator-", metadata !"operator-", metadata !"_ZNK11ap_int_baseILi33ELb1ELb1EEngEv", metadata !63, i32 1875, metadata !1053, i1 false, i1 false, i32 0, i32 0, null, i32 256, i1 false, null, null, i32 0, metadata !75, i32 1875} ; [ DW_TAG_subprogram ]
!1053 = metadata !{i32 786453, i32 0, metadata !"", i32 0, i32 0, i64 0, i64 0, i64 0, i32 0, null, metadata !1054, i32 0, i32 0} ; [ DW_TAG_subroutine_type ]
!1054 = metadata !{metadata !1055, metadata !977}
!1055 = metadata !{i32 786434, null, metadata !"ap_int_base<34, true, true>", metadata !63, i32 650, i32 0, i32 0, i32 0, i32 4, null, null, i32 0} ; [ DW_TAG_class_type ]
!1056 = metadata !{i32 786478, i32 0, metadata !845, metadata !"range", metadata !"range", metadata !"_ZN11ap_int_baseILi33ELb1ELb1EE5rangeEii", metadata !63, i32 2005, metadata !1057, i1 false, i1 false, i32 0, i32 0, null, i32 256, i1 false, null, null, i32 0, metadata !75, i32 2005} ; [ DW_TAG_subprogram ]
!1057 = metadata !{i32 786453, i32 0, metadata !"", i32 0, i32 0, i64 0, i64 0, i64 0, i32 0, null, metadata !1058, i32 0, i32 0} ; [ DW_TAG_subroutine_type ]
!1058 = metadata !{metadata !1059, metadata !861, metadata !79, metadata !79}
!1059 = metadata !{i32 786434, null, metadata !"ap_range_ref<33, true>", metadata !63, i32 923, i32 0, i32 0, i32 0, i32 4, null, null, i32 0} ; [ DW_TAG_class_type ]
!1060 = metadata !{i32 786478, i32 0, metadata !845, metadata !"operator()", metadata !"operator()", metadata !"_ZN11ap_int_baseILi33ELb1ELb1EEclEii", metadata !63, i32 2011, metadata !1057, i1 false, i1 false, i32 0, i32 0, null, i32 256, i1 false, null, null, i32 0, metadata !75, i32 2011} ; [ DW_TAG_subprogram ]
!1061 = metadata !{i32 786478, i32 0, metadata !845, metadata !"range", metadata !"range", metadata !"_ZNK11ap_int_baseILi33ELb1ELb1EE5rangeEii", metadata !63, i32 2017, metadata !1062, i1 false, i1 false, i32 0, i32 0, null, i32 256, i1 false, null, null, i32 0, metadata !75, i32 2017} ; [ DW_TAG_subprogram ]
!1062 = metadata !{i32 786453, i32 0, metadata !"", i32 0, i32 0, i64 0, i64 0, i64 0, i32 0, null, metadata !1063, i32 0, i32 0} ; [ DW_TAG_subroutine_type ]
!1063 = metadata !{metadata !1059, metadata !977, metadata !79, metadata !79}
!1064 = metadata !{i32 786478, i32 0, metadata !845, metadata !"operator()", metadata !"operator()", metadata !"_ZNK11ap_int_baseILi33ELb1ELb1EEclEii", metadata !63, i32 2023, metadata !1062, i1 false, i1 false, i32 0, i32 0, null, i32 256, i1 false, null, null, i32 0, metadata !75, i32 2023} ; [ DW_TAG_subprogram ]
!1065 = metadata !{i32 786478, i32 0, metadata !845, metadata !"operator[]", metadata !"operator[]", metadata !"_ZN11ap_int_baseILi33ELb1ELb1EEixEi", metadata !63, i32 2042, metadata !1066, i1 false, i1 false, i32 0, i32 0, null, i32 256, i1 false, null, null, i32 0, metadata !75, i32 2042} ; [ DW_TAG_subprogram ]
!1066 = metadata !{i32 786453, i32 0, metadata !"", i32 0, i32 0, i64 0, i64 0, i64 0, i32 0, null, metadata !1067, i32 0, i32 0} ; [ DW_TAG_subroutine_type ]
!1067 = metadata !{metadata !1068, metadata !861, metadata !79}
!1068 = metadata !{i32 786434, null, metadata !"ap_bit_ref<33, true>", metadata !63, i32 1193, i64 128, i64 64, i32 0, i32 0, null, metadata !1069, i32 0, null, metadata !1102} ; [ DW_TAG_class_type ]
!1069 = metadata !{metadata !1070, metadata !1071, metadata !1072, metadata !1078, metadata !1082, metadata !1086, metadata !1087, metadata !1091, metadata !1094, metadata !1095, metadata !1098, metadata !1099}
!1070 = metadata !{i32 786445, metadata !1068, metadata !"d_bv", metadata !63, i32 1194, i64 64, i64 64, i64 0, i32 0, metadata !935} ; [ DW_TAG_member ]
!1071 = metadata !{i32 786445, metadata !1068, metadata !"d_index", metadata !63, i32 1195, i64 32, i64 32, i64 64, i32 0, metadata !79} ; [ DW_TAG_member ]
!1072 = metadata !{i32 786478, i32 0, metadata !1068, metadata !"ap_bit_ref", metadata !"ap_bit_ref", metadata !"", metadata !63, i32 1198, metadata !1073, i1 false, i1 false, i32 0, i32 0, null, i32 256, i1 false, null, null, i32 0, metadata !75, i32 1198} ; [ DW_TAG_subprogram ]
!1073 = metadata !{i32 786453, i32 0, metadata !"", i32 0, i32 0, i64 0, i64 0, i64 0, i32 0, null, metadata !1074, i32 0, i32 0} ; [ DW_TAG_subroutine_type ]
!1074 = metadata !{null, metadata !1075, metadata !1076}
!1075 = metadata !{i32 786447, i32 0, metadata !"", i32 0, i32 0, i64 64, i64 64, i64 0, i32 64, metadata !1068} ; [ DW_TAG_pointer_type ]
!1076 = metadata !{i32 786448, null, null, null, i32 0, i64 0, i64 0, i64 0, i32 0, metadata !1077} ; [ DW_TAG_reference_type ]
!1077 = metadata !{i32 786470, null, metadata !"", null, i32 0, i64 0, i64 0, i64 0, i32 0, metadata !1068} ; [ DW_TAG_const_type ]
!1078 = metadata !{i32 786478, i32 0, metadata !1068, metadata !"ap_bit_ref", metadata !"ap_bit_ref", metadata !"", metadata !63, i32 1201, metadata !1079, i1 false, i1 false, i32 0, i32 0, null, i32 256, i1 false, null, null, i32 0, metadata !75, i32 1201} ; [ DW_TAG_subprogram ]
!1079 = metadata !{i32 786453, i32 0, metadata !"", i32 0, i32 0, i64 0, i64 0, i64 0, i32 0, null, metadata !1080, i32 0, i32 0} ; [ DW_TAG_subroutine_type ]
!1080 = metadata !{null, metadata !1075, metadata !1081, metadata !79}
!1081 = metadata !{i32 786447, null, metadata !"", null, i32 0, i64 64, i64 64, i64 0, i32 0, metadata !845} ; [ DW_TAG_pointer_type ]
!1082 = metadata !{i32 786478, i32 0, metadata !1068, metadata !"operator _Bool", metadata !"operator _Bool", metadata !"_ZNK10ap_bit_refILi33ELb1EEcvbEv", metadata !63, i32 1203, metadata !1083, i1 false, i1 false, i32 0, i32 0, null, i32 256, i1 false, null, null, i32 0, metadata !75, i32 1203} ; [ DW_TAG_subprogram ]
!1083 = metadata !{i32 786453, i32 0, metadata !"", i32 0, i32 0, i64 0, i64 0, i64 0, i32 0, null, metadata !1084, i32 0, i32 0} ; [ DW_TAG_subroutine_type ]
!1084 = metadata !{metadata !81, metadata !1085}
!1085 = metadata !{i32 786447, i32 0, metadata !"", i32 0, i32 0, i64 64, i64 64, i64 0, i32 64, metadata !1077} ; [ DW_TAG_pointer_type ]
!1086 = metadata !{i32 786478, i32 0, metadata !1068, metadata !"to_bool", metadata !"to_bool", metadata !"_ZNK10ap_bit_refILi33ELb1EE7to_boolEv", metadata !63, i32 1204, metadata !1083, i1 false, i1 false, i32 0, i32 0, null, i32 256, i1 false, null, null, i32 0, metadata !75, i32 1204} ; [ DW_TAG_subprogram ]
!1087 = metadata !{i32 786478, i32 0, metadata !1068, metadata !"operator=", metadata !"operator=", metadata !"_ZN10ap_bit_refILi33ELb1EEaSEy", metadata !63, i32 1206, metadata !1088, i1 false, i1 false, i32 0, i32 0, null, i32 256, i1 false, null, null, i32 0, metadata !75, i32 1206} ; [ DW_TAG_subprogram ]
!1088 = metadata !{i32 786453, i32 0, metadata !"", i32 0, i32 0, i64 0, i64 0, i64 0, i32 0, null, metadata !1089, i32 0, i32 0} ; [ DW_TAG_subroutine_type ]
!1089 = metadata !{metadata !1090, metadata !1075, metadata !129}
!1090 = metadata !{i32 786448, null, null, null, i32 0, i64 0, i64 0, i64 0, i32 0, metadata !1068} ; [ DW_TAG_reference_type ]
!1091 = metadata !{i32 786478, i32 0, metadata !1068, metadata !"operator=", metadata !"operator=", metadata !"_ZN10ap_bit_refILi33ELb1EEaSERKS0_", metadata !63, i32 1226, metadata !1092, i1 false, i1 false, i32 0, i32 0, null, i32 256, i1 false, null, null, i32 0, metadata !75, i32 1226} ; [ DW_TAG_subprogram ]
!1092 = metadata !{i32 786453, i32 0, metadata !"", i32 0, i32 0, i64 0, i64 0, i64 0, i32 0, null, metadata !1093, i32 0, i32 0} ; [ DW_TAG_subroutine_type ]
!1093 = metadata !{metadata !1090, metadata !1075, metadata !1076}
!1094 = metadata !{i32 786478, i32 0, metadata !1068, metadata !"get", metadata !"get", metadata !"_ZNK10ap_bit_refILi33ELb1EE3getEv", metadata !63, i32 1334, metadata !1083, i1 false, i1 false, i32 0, i32 0, null, i32 256, i1 false, null, null, i32 0, metadata !75, i32 1334} ; [ DW_TAG_subprogram ]
!1095 = metadata !{i32 786478, i32 0, metadata !1068, metadata !"get", metadata !"get", metadata !"_ZN10ap_bit_refILi33ELb1EE3getEv", metadata !63, i32 1338, metadata !1096, i1 false, i1 false, i32 0, i32 0, null, i32 256, i1 false, null, null, i32 0, metadata !75, i32 1338} ; [ DW_TAG_subprogram ]
!1096 = metadata !{i32 786453, i32 0, metadata !"", i32 0, i32 0, i64 0, i64 0, i64 0, i32 0, null, metadata !1097, i32 0, i32 0} ; [ DW_TAG_subroutine_type ]
!1097 = metadata !{metadata !81, metadata !1075}
!1098 = metadata !{i32 786478, i32 0, metadata !1068, metadata !"operator~", metadata !"operator~", metadata !"_ZNK10ap_bit_refILi33ELb1EEcoEv", metadata !63, i32 1347, metadata !1083, i1 false, i1 false, i32 0, i32 0, null, i32 256, i1 false, null, null, i32 0, metadata !75, i32 1347} ; [ DW_TAG_subprogram ]
!1099 = metadata !{i32 786478, i32 0, metadata !1068, metadata !"length", metadata !"length", metadata !"_ZNK10ap_bit_refILi33ELb1EE6lengthEv", metadata !63, i32 1352, metadata !1100, i1 false, i1 false, i32 0, i32 0, null, i32 256, i1 false, null, null, i32 0, metadata !75, i32 1352} ; [ DW_TAG_subprogram ]
!1100 = metadata !{i32 786453, i32 0, metadata !"", i32 0, i32 0, i64 0, i64 0, i64 0, i32 0, null, metadata !1101, i32 0, i32 0} ; [ DW_TAG_subroutine_type ]
!1101 = metadata !{metadata !79, metadata !1085}
!1102 = metadata !{metadata !1103, metadata !499}
!1103 = metadata !{i32 786480, null, metadata !"_AP_W", metadata !79, i64 33, null, i32 0, i32 0} ; [ DW_TAG_template_value_parameter ]
!1104 = metadata !{i32 786478, i32 0, metadata !845, metadata !"operator[]", metadata !"operator[]", metadata !"_ZNK11ap_int_baseILi33ELb1ELb1EEixEi", metadata !63, i32 2056, metadata !1028, i1 false, i1 false, i32 0, i32 0, null, i32 256, i1 false, null, null, i32 0, metadata !75, i32 2056} ; [ DW_TAG_subprogram ]
!1105 = metadata !{i32 786478, i32 0, metadata !845, metadata !"bit", metadata !"bit", metadata !"_ZN11ap_int_baseILi33ELb1ELb1EE3bitEi", metadata !63, i32 2070, metadata !1066, i1 false, i1 false, i32 0, i32 0, null, i32 256, i1 false, null, null, i32 0, metadata !75, i32 2070} ; [ DW_TAG_subprogram ]
!1106 = metadata !{i32 786478, i32 0, metadata !845, metadata !"bit", metadata !"bit", metadata !"_ZNK11ap_int_baseILi33ELb1ELb1EE3bitEi", metadata !63, i32 2084, metadata !1028, i1 false, i1 false, i32 0, i32 0, null, i32 256, i1 false, null, null, i32 0, metadata !75, i32 2084} ; [ DW_TAG_subprogram ]
!1107 = metadata !{i32 786478, i32 0, metadata !845, metadata !"and_reduce", metadata !"and_reduce", metadata !"_ZN11ap_int_baseILi33ELb1ELb1EE10and_reduceEv", metadata !63, i32 2264, metadata !1108, i1 false, i1 false, i32 0, i32 0, null, i32 256, i1 false, null, null, i32 0, metadata !75, i32 2264} ; [ DW_TAG_subprogram ]
!1108 = metadata !{i32 786453, i32 0, metadata !"", i32 0, i32 0, i64 0, i64 0, i64 0, i32 0, null, metadata !1109, i32 0, i32 0} ; [ DW_TAG_subroutine_type ]
!1109 = metadata !{metadata !81, metadata !861}
!1110 = metadata !{i32 786478, i32 0, metadata !845, metadata !"nand_reduce", metadata !"nand_reduce", metadata !"_ZN11ap_int_baseILi33ELb1ELb1EE11nand_reduceEv", metadata !63, i32 2267, metadata !1108, i1 false, i1 false, i32 0, i32 0, null, i32 256, i1 false, null, null, i32 0, metadata !75, i32 2267} ; [ DW_TAG_subprogram ]
!1111 = metadata !{i32 786478, i32 0, metadata !845, metadata !"or_reduce", metadata !"or_reduce", metadata !"_ZN11ap_int_baseILi33ELb1ELb1EE9or_reduceEv", metadata !63, i32 2270, metadata !1108, i1 false, i1 false, i32 0, i32 0, null, i32 256, i1 false, null, null, i32 0, metadata !75, i32 2270} ; [ DW_TAG_subprogram ]
!1112 = metadata !{i32 786478, i32 0, metadata !845, metadata !"nor_reduce", metadata !"nor_reduce", metadata !"_ZN11ap_int_baseILi33ELb1ELb1EE10nor_reduceEv", metadata !63, i32 2273, metadata !1108, i1 false, i1 false, i32 0, i32 0, null, i32 256, i1 false, null, null, i32 0, metadata !75, i32 2273} ; [ DW_TAG_subprogram ]
!1113 = metadata !{i32 786478, i32 0, metadata !845, metadata !"xor_reduce", metadata !"xor_reduce", metadata !"_ZN11ap_int_baseILi33ELb1ELb1EE10xor_reduceEv", metadata !63, i32 2276, metadata !1108, i1 false, i1 false, i32 0, i32 0, null, i32 256, i1 false, null, null, i32 0, metadata !75, i32 2276} ; [ DW_TAG_subprogram ]
!1114 = metadata !{i32 786478, i32 0, metadata !845, metadata !"xnor_reduce", metadata !"xnor_reduce", metadata !"_ZN11ap_int_baseILi33ELb1ELb1EE11xnor_reduceEv", metadata !63, i32 2279, metadata !1108, i1 false, i1 false, i32 0, i32 0, null, i32 256, i1 false, null, null, i32 0, metadata !75, i32 2279} ; [ DW_TAG_subprogram ]
!1115 = metadata !{i32 786478, i32 0, metadata !845, metadata !"and_reduce", metadata !"and_reduce", metadata !"_ZNK11ap_int_baseILi33ELb1ELb1EE10and_reduceEv", metadata !63, i32 2283, metadata !979, i1 false, i1 false, i32 0, i32 0, null, i32 256, i1 false, null, null, i32 0, metadata !75, i32 2283} ; [ DW_TAG_subprogram ]
!1116 = metadata !{i32 786478, i32 0, metadata !845, metadata !"nand_reduce", metadata !"nand_reduce", metadata !"_ZNK11ap_int_baseILi33ELb1ELb1EE11nand_reduceEv", metadata !63, i32 2286, metadata !979, i1 false, i1 false, i32 0, i32 0, null, i32 256, i1 false, null, null, i32 0, metadata !75, i32 2286} ; [ DW_TAG_subprogram ]
!1117 = metadata !{i32 786478, i32 0, metadata !845, metadata !"or_reduce", metadata !"or_reduce", metadata !"_ZNK11ap_int_baseILi33ELb1ELb1EE9or_reduceEv", metadata !63, i32 2289, metadata !979, i1 false, i1 false, i32 0, i32 0, null, i32 256, i1 false, null, null, i32 0, metadata !75, i32 2289} ; [ DW_TAG_subprogram ]
!1118 = metadata !{i32 786478, i32 0, metadata !845, metadata !"nor_reduce", metadata !"nor_reduce", metadata !"_ZNK11ap_int_baseILi33ELb1ELb1EE10nor_reduceEv", metadata !63, i32 2292, metadata !979, i1 false, i1 false, i32 0, i32 0, null, i32 256, i1 false, null, null, i32 0, metadata !75, i32 2292} ; [ DW_TAG_subprogram ]
!1119 = metadata !{i32 786478, i32 0, metadata !845, metadata !"xor_reduce", metadata !"xor_reduce", metadata !"_ZNK11ap_int_baseILi33ELb1ELb1EE10xor_reduceEv", metadata !63, i32 2295, metadata !979, i1 false, i1 false, i32 0, i32 0, null, i32 256, i1 false, null, null, i32 0, metadata !75, i32 2295} ; [ DW_TAG_subprogram ]
!1120 = metadata !{i32 786478, i32 0, metadata !845, metadata !"xnor_reduce", metadata !"xnor_reduce", metadata !"_ZNK11ap_int_baseILi33ELb1ELb1EE11xnor_reduceEv", metadata !63, i32 2298, metadata !979, i1 false, i1 false, i32 0, i32 0, null, i32 256, i1 false, null, null, i32 0, metadata !75, i32 2298} ; [ DW_TAG_subprogram ]
!1121 = metadata !{i32 786478, i32 0, metadata !845, metadata !"to_string", metadata !"to_string", metadata !"_ZNK11ap_int_baseILi33ELb1ELb1EE9to_stringEPci8BaseModeb", metadata !63, i32 2305, metadata !1122, i1 false, i1 false, i32 0, i32 0, null, i32 256, i1 false, null, null, i32 0, metadata !75, i32 2305} ; [ DW_TAG_subprogram ]
!1122 = metadata !{i32 786453, i32 0, metadata !"", i32 0, i32 0, i64 0, i64 0, i64 0, i32 0, null, metadata !1123, i32 0, i32 0} ; [ DW_TAG_subroutine_type ]
!1123 = metadata !{null, metadata !977, metadata !718, metadata !79, metadata !719, metadata !81}
!1124 = metadata !{i32 786478, i32 0, metadata !845, metadata !"to_string", metadata !"to_string", metadata !"_ZNK11ap_int_baseILi33ELb1ELb1EE9to_stringE8BaseModeb", metadata !63, i32 2332, metadata !1125, i1 false, i1 false, i32 0, i32 0, null, i32 256, i1 false, null, null, i32 0, metadata !75, i32 2332} ; [ DW_TAG_subprogram ]
!1125 = metadata !{i32 786453, i32 0, metadata !"", i32 0, i32 0, i64 0, i64 0, i64 0, i32 0, null, metadata !1126, i32 0, i32 0} ; [ DW_TAG_subroutine_type ]
!1126 = metadata !{metadata !718, metadata !977, metadata !719, metadata !81}
!1127 = metadata !{i32 786478, i32 0, metadata !845, metadata !"to_string", metadata !"to_string", metadata !"_ZNK11ap_int_baseILi33ELb1ELb1EE9to_stringEab", metadata !63, i32 2336, metadata !1128, i1 false, i1 false, i32 0, i32 0, null, i32 256, i1 false, null, null, i32 0, metadata !75, i32 2336} ; [ DW_TAG_subprogram ]
!1128 = metadata !{i32 786453, i32 0, metadata !"", i32 0, i32 0, i64 0, i64 0, i64 0, i32 0, null, metadata !1129, i32 0, i32 0} ; [ DW_TAG_subroutine_type ]
!1129 = metadata !{metadata !718, metadata !977, metadata !92, metadata !81}
!1130 = metadata !{metadata !1103, metadata !499, metadata !733}
!1131 = metadata !{i32 786478, i32 0, metadata !62, metadata !"range", metadata !"range", metadata !"_ZN11ap_int_baseILi32ELb0ELb1EE5rangeEii", metadata !63, i32 2005, metadata !1132, i1 false, i1 false, i32 0, i32 0, null, i32 256, i1 false, null, null, i32 0, metadata !75, i32 2005} ; [ DW_TAG_subprogram ]
!1132 = metadata !{i32 786453, i32 0, metadata !"", i32 0, i32 0, i64 0, i64 0, i64 0, i32 0, null, metadata !1133, i32 0, i32 0} ; [ DW_TAG_subroutine_type ]
!1133 = metadata !{metadata !1134, metadata !85, metadata !79, metadata !79}
!1134 = metadata !{i32 786434, null, metadata !"ap_range_ref<32, false>", metadata !63, i32 923, i64 128, i64 64, i32 0, i32 0, null, metadata !1135, i32 0, null, metadata !1191} ; [ DW_TAG_class_type ]
!1135 = metadata !{metadata !1136, metadata !1137, metadata !1138, metadata !1139, metadata !1145, metadata !1149, metadata !1153, metadata !1156, metadata !1160, metadata !1163, metadata !1167, metadata !1170, metadata !1171, metadata !1174, metadata !1177, metadata !1180, metadata !1183, metadata !1186, metadata !1189, metadata !1190}
!1136 = metadata !{i32 786445, metadata !1134, metadata !"d_bv", metadata !63, i32 924, i64 64, i64 64, i64 0, i32 0, metadata !166} ; [ DW_TAG_member ]
!1137 = metadata !{i32 786445, metadata !1134, metadata !"l_index", metadata !63, i32 925, i64 32, i64 32, i64 64, i32 0, metadata !79} ; [ DW_TAG_member ]
!1138 = metadata !{i32 786445, metadata !1134, metadata !"h_index", metadata !63, i32 926, i64 32, i64 32, i64 96, i32 0, metadata !79} ; [ DW_TAG_member ]
!1139 = metadata !{i32 786478, i32 0, metadata !1134, metadata !"ap_range_ref", metadata !"ap_range_ref", metadata !"", metadata !63, i32 929, metadata !1140, i1 false, i1 false, i32 0, i32 0, null, i32 256, i1 false, null, null, i32 0, metadata !75, i32 929} ; [ DW_TAG_subprogram ]
!1140 = metadata !{i32 786453, i32 0, metadata !"", i32 0, i32 0, i64 0, i64 0, i64 0, i32 0, null, metadata !1141, i32 0, i32 0} ; [ DW_TAG_subroutine_type ]
!1141 = metadata !{null, metadata !1142, metadata !1143}
!1142 = metadata !{i32 786447, i32 0, metadata !"", i32 0, i32 0, i64 64, i64 64, i64 0, i32 64, metadata !1134} ; [ DW_TAG_pointer_type ]
!1143 = metadata !{i32 786448, null, null, null, i32 0, i64 0, i64 0, i64 0, i32 0, metadata !1144} ; [ DW_TAG_reference_type ]
!1144 = metadata !{i32 786470, null, metadata !"", null, i32 0, i64 0, i64 0, i64 0, i32 0, metadata !1134} ; [ DW_TAG_const_type ]
!1145 = metadata !{i32 786478, i32 0, metadata !1134, metadata !"ap_range_ref", metadata !"ap_range_ref", metadata !"", metadata !63, i32 932, metadata !1146, i1 false, i1 false, i32 0, i32 0, null, i32 256, i1 false, null, null, i32 0, metadata !75, i32 932} ; [ DW_TAG_subprogram ]
!1146 = metadata !{i32 786453, i32 0, metadata !"", i32 0, i32 0, i64 0, i64 0, i64 0, i32 0, null, metadata !1147, i32 0, i32 0} ; [ DW_TAG_subroutine_type ]
!1147 = metadata !{null, metadata !1142, metadata !1148, metadata !79, metadata !79}
!1148 = metadata !{i32 786447, null, metadata !"", null, i32 0, i64 64, i64 64, i64 0, i32 0, metadata !62} ; [ DW_TAG_pointer_type ]
!1149 = metadata !{i32 786478, i32 0, metadata !1134, metadata !"operator ap_int_base", metadata !"operator ap_int_base", metadata !"_ZNK12ap_range_refILi32ELb0EEcv11ap_int_baseILi32ELb0ELb1EEEv", metadata !63, i32 937, metadata !1150, i1 false, i1 false, i32 0, i32 0, null, i32 256, i1 false, null, null, i32 0, metadata !75, i32 937} ; [ DW_TAG_subprogram ]
!1150 = metadata !{i32 786453, i32 0, metadata !"", i32 0, i32 0, i64 0, i64 0, i64 0, i32 0, null, metadata !1151, i32 0, i32 0} ; [ DW_TAG_subroutine_type ]
!1151 = metadata !{metadata !62, metadata !1152}
!1152 = metadata !{i32 786447, i32 0, metadata !"", i32 0, i32 0, i64 64, i64 64, i64 0, i32 64, metadata !1144} ; [ DW_TAG_pointer_type ]
!1153 = metadata !{i32 786478, i32 0, metadata !1134, metadata !"operator unsigned long long", metadata !"operator unsigned long long", metadata !"_ZNK12ap_range_refILi32ELb0EEcvyEv", metadata !63, i32 943, metadata !1154, i1 false, i1 false, i32 0, i32 0, null, i32 256, i1 false, null, null, i32 0, metadata !75, i32 943} ; [ DW_TAG_subprogram ]
!1154 = metadata !{i32 786453, i32 0, metadata !"", i32 0, i32 0, i64 0, i64 0, i64 0, i32 0, null, metadata !1155, i32 0, i32 0} ; [ DW_TAG_subroutine_type ]
!1155 = metadata !{metadata !129, metadata !1152}
!1156 = metadata !{i32 786478, i32 0, metadata !1134, metadata !"operator=", metadata !"operator=", metadata !"_ZN12ap_range_refILi32ELb0EEaSEy", metadata !63, i32 947, metadata !1157, i1 false, i1 false, i32 0, i32 0, null, i32 256, i1 false, null, null, i32 0, metadata !75, i32 947} ; [ DW_TAG_subprogram ]
!1157 = metadata !{i32 786453, i32 0, metadata !"", i32 0, i32 0, i64 0, i64 0, i64 0, i32 0, null, metadata !1158, i32 0, i32 0} ; [ DW_TAG_subroutine_type ]
!1158 = metadata !{metadata !1159, metadata !1142, metadata !129}
!1159 = metadata !{i32 786448, null, null, null, i32 0, i64 0, i64 0, i64 0, i32 0, metadata !1134} ; [ DW_TAG_reference_type ]
!1160 = metadata !{i32 786478, i32 0, metadata !1134, metadata !"operator=", metadata !"operator=", metadata !"_ZN12ap_range_refILi32ELb0EEaSERKS0_", metadata !63, i32 965, metadata !1161, i1 false, i1 false, i32 0, i32 0, null, i32 256, i1 false, null, null, i32 0, metadata !75, i32 965} ; [ DW_TAG_subprogram ]
!1161 = metadata !{i32 786453, i32 0, metadata !"", i32 0, i32 0, i64 0, i64 0, i64 0, i32 0, null, metadata !1162, i32 0, i32 0} ; [ DW_TAG_subroutine_type ]
!1162 = metadata !{metadata !1159, metadata !1142, metadata !1143}
!1163 = metadata !{i32 786478, i32 0, metadata !1134, metadata !"operator,", metadata !"operator,", metadata !"_ZN12ap_range_refILi32ELb0EEcmER11ap_int_baseILi32ELb0ELb1EE", metadata !63, i32 1020, metadata !1164, i1 false, i1 false, i32 0, i32 0, null, i32 256, i1 false, null, null, i32 0, metadata !75, i32 1020} ; [ DW_TAG_subprogram ]
!1164 = metadata !{i32 786453, i32 0, metadata !"", i32 0, i32 0, i64 0, i64 0, i64 0, i32 0, null, metadata !1165, i32 0, i32 0} ; [ DW_TAG_subroutine_type ]
!1165 = metadata !{metadata !1166, metadata !1142, metadata !166}
!1166 = metadata !{i32 786434, null, metadata !"ap_concat_ref<32, ap_range_ref<32, false>, 32, ap_int_base<32, false, true> >", metadata !63, i32 686, i32 0, i32 0, i32 0, i32 4, null, null, i32 0} ; [ DW_TAG_class_type ]
!1167 = metadata !{i32 786478, i32 0, metadata !1134, metadata !"length", metadata !"length", metadata !"_ZNK12ap_range_refILi32ELb0EE6lengthEv", metadata !63, i32 1131, metadata !1168, i1 false, i1 false, i32 0, i32 0, null, i32 256, i1 false, null, null, i32 0, metadata !75, i32 1131} ; [ DW_TAG_subprogram ]
!1168 = metadata !{i32 786453, i32 0, metadata !"", i32 0, i32 0, i64 0, i64 0, i64 0, i32 0, null, metadata !1169, i32 0, i32 0} ; [ DW_TAG_subroutine_type ]
!1169 = metadata !{metadata !79, metadata !1152}
!1170 = metadata !{i32 786478, i32 0, metadata !1134, metadata !"to_int", metadata !"to_int", metadata !"_ZNK12ap_range_refILi32ELb0EE6to_intEv", metadata !63, i32 1135, metadata !1168, i1 false, i1 false, i32 0, i32 0, null, i32 256, i1 false, null, null, i32 0, metadata !75, i32 1135} ; [ DW_TAG_subprogram ]
!1171 = metadata !{i32 786478, i32 0, metadata !1134, metadata !"to_uint", metadata !"to_uint", metadata !"_ZNK12ap_range_refILi32ELb0EE7to_uintEv", metadata !63, i32 1138, metadata !1172, i1 false, i1 false, i32 0, i32 0, null, i32 256, i1 false, null, null, i32 0, metadata !75, i32 1138} ; [ DW_TAG_subprogram ]
!1172 = metadata !{i32 786453, i32 0, metadata !"", i32 0, i32 0, i64 0, i64 0, i64 0, i32 0, null, metadata !1173, i32 0, i32 0} ; [ DW_TAG_subroutine_type ]
!1173 = metadata !{metadata !111, metadata !1152}
!1174 = metadata !{i32 786478, i32 0, metadata !1134, metadata !"to_long", metadata !"to_long", metadata !"_ZNK12ap_range_refILi32ELb0EE7to_longEv", metadata !63, i32 1141, metadata !1175, i1 false, i1 false, i32 0, i32 0, null, i32 256, i1 false, null, null, i32 0, metadata !75, i32 1141} ; [ DW_TAG_subprogram ]
!1175 = metadata !{i32 786453, i32 0, metadata !"", i32 0, i32 0, i64 0, i64 0, i64 0, i32 0, null, metadata !1176, i32 0, i32 0} ; [ DW_TAG_subroutine_type ]
!1176 = metadata !{metadata !115, metadata !1152}
!1177 = metadata !{i32 786478, i32 0, metadata !1134, metadata !"to_ulong", metadata !"to_ulong", metadata !"_ZNK12ap_range_refILi32ELb0EE8to_ulongEv", metadata !63, i32 1144, metadata !1178, i1 false, i1 false, i32 0, i32 0, null, i32 256, i1 false, null, null, i32 0, metadata !75, i32 1144} ; [ DW_TAG_subprogram ]
!1178 = metadata !{i32 786453, i32 0, metadata !"", i32 0, i32 0, i64 0, i64 0, i64 0, i32 0, null, metadata !1179, i32 0, i32 0} ; [ DW_TAG_subroutine_type ]
!1179 = metadata !{metadata !119, metadata !1152}
!1180 = metadata !{i32 786478, i32 0, metadata !1134, metadata !"to_int64", metadata !"to_int64", metadata !"_ZNK12ap_range_refILi32ELb0EE8to_int64Ev", metadata !63, i32 1147, metadata !1181, i1 false, i1 false, i32 0, i32 0, null, i32 256, i1 false, null, null, i32 0, metadata !75, i32 1147} ; [ DW_TAG_subprogram ]
!1181 = metadata !{i32 786453, i32 0, metadata !"", i32 0, i32 0, i64 0, i64 0, i64 0, i32 0, null, metadata !1182, i32 0, i32 0} ; [ DW_TAG_subroutine_type ]
!1182 = metadata !{metadata !123, metadata !1152}
!1183 = metadata !{i32 786478, i32 0, metadata !1134, metadata !"to_uint64", metadata !"to_uint64", metadata !"_ZNK12ap_range_refILi32ELb0EE9to_uint64Ev", metadata !63, i32 1150, metadata !1184, i1 false, i1 false, i32 0, i32 0, null, i32 256, i1 false, null, null, i32 0, metadata !75, i32 1150} ; [ DW_TAG_subprogram ]
!1184 = metadata !{i32 786453, i32 0, metadata !"", i32 0, i32 0, i64 0, i64 0, i64 0, i32 0, null, metadata !1185, i32 0, i32 0} ; [ DW_TAG_subroutine_type ]
!1185 = metadata !{metadata !128, metadata !1152}
!1186 = metadata !{i32 786478, i32 0, metadata !1134, metadata !"and_reduce", metadata !"and_reduce", metadata !"_ZNK12ap_range_refILi32ELb0EE10and_reduceEv", metadata !63, i32 1153, metadata !1187, i1 false, i1 false, i32 0, i32 0, null, i32 256, i1 false, null, null, i32 0, metadata !75, i32 1153} ; [ DW_TAG_subprogram ]
!1187 = metadata !{i32 786453, i32 0, metadata !"", i32 0, i32 0, i64 0, i64 0, i64 0, i32 0, null, metadata !1188, i32 0, i32 0} ; [ DW_TAG_subroutine_type ]
!1188 = metadata !{metadata !81, metadata !1152}
!1189 = metadata !{i32 786478, i32 0, metadata !1134, metadata !"or_reduce", metadata !"or_reduce", metadata !"_ZNK12ap_range_refILi32ELb0EE9or_reduceEv", metadata !63, i32 1164, metadata !1187, i1 false, i1 false, i32 0, i32 0, null, i32 256, i1 false, null, null, i32 0, metadata !75, i32 1164} ; [ DW_TAG_subprogram ]
!1190 = metadata !{i32 786478, i32 0, metadata !1134, metadata !"xor_reduce", metadata !"xor_reduce", metadata !"_ZNK12ap_range_refILi32ELb0EE10xor_reduceEv", metadata !63, i32 1175, metadata !1187, i1 false, i1 false, i32 0, i32 0, null, i32 256, i1 false, null, null, i32 0, metadata !75, i32 1175} ; [ DW_TAG_subprogram ]
!1191 = metadata !{metadata !1192, metadata !80}
!1192 = metadata !{i32 786480, null, metadata !"_AP_W", metadata !79, i64 32, null, i32 0, i32 0} ; [ DW_TAG_template_value_parameter ]
!1193 = metadata !{i32 786478, i32 0, metadata !62, metadata !"operator()", metadata !"operator()", metadata !"_ZN11ap_int_baseILi32ELb0ELb1EEclEii", metadata !63, i32 2011, metadata !1132, i1 false, i1 false, i32 0, i32 0, null, i32 256, i1 false, null, null, i32 0, metadata !75, i32 2011} ; [ DW_TAG_subprogram ]
!1194 = metadata !{i32 786478, i32 0, metadata !62, metadata !"range", metadata !"range", metadata !"_ZNK11ap_int_baseILi32ELb0ELb1EE5rangeEii", metadata !63, i32 2017, metadata !1195, i1 false, i1 false, i32 0, i32 0, null, i32 256, i1 false, null, null, i32 0, metadata !75, i32 2017} ; [ DW_TAG_subprogram ]
!1195 = metadata !{i32 786453, i32 0, metadata !"", i32 0, i32 0, i64 0, i64 0, i64 0, i32 0, null, metadata !1196, i32 0, i32 0} ; [ DW_TAG_subroutine_type ]
!1196 = metadata !{metadata !1134, metadata !209, metadata !79, metadata !79}
!1197 = metadata !{i32 786478, i32 0, metadata !62, metadata !"operator()", metadata !"operator()", metadata !"_ZNK11ap_int_baseILi32ELb0ELb1EEclEii", metadata !63, i32 2023, metadata !1195, i1 false, i1 false, i32 0, i32 0, null, i32 256, i1 false, null, null, i32 0, metadata !75, i32 2023} ; [ DW_TAG_subprogram ]
!1198 = metadata !{i32 786478, i32 0, metadata !62, metadata !"operator[]", metadata !"operator[]", metadata !"_ZN11ap_int_baseILi32ELb0ELb1EEixEi", metadata !63, i32 2042, metadata !1199, i1 false, i1 false, i32 0, i32 0, null, i32 256, i1 false, null, null, i32 0, metadata !75, i32 2042} ; [ DW_TAG_subprogram ]
!1199 = metadata !{i32 786453, i32 0, metadata !"", i32 0, i32 0, i64 0, i64 0, i64 0, i32 0, null, metadata !1200, i32 0, i32 0} ; [ DW_TAG_subroutine_type ]
!1200 = metadata !{metadata !1201, metadata !85, metadata !79}
!1201 = metadata !{i32 786434, null, metadata !"ap_bit_ref<32, false>", metadata !63, i32 1193, i32 0, i32 0, i32 0, i32 4, null, null, i32 0} ; [ DW_TAG_class_type ]
!1202 = metadata !{i32 786478, i32 0, metadata !62, metadata !"operator[]", metadata !"operator[]", metadata !"_ZNK11ap_int_baseILi32ELb0ELb1EEixEi", metadata !63, i32 2056, metadata !260, i1 false, i1 false, i32 0, i32 0, null, i32 256, i1 false, null, null, i32 0, metadata !75, i32 2056} ; [ DW_TAG_subprogram ]
!1203 = metadata !{i32 786478, i32 0, metadata !62, metadata !"bit", metadata !"bit", metadata !"_ZN11ap_int_baseILi32ELb0ELb1EE3bitEi", metadata !63, i32 2070, metadata !1199, i1 false, i1 false, i32 0, i32 0, null, i32 256, i1 false, null, null, i32 0, metadata !75, i32 2070} ; [ DW_TAG_subprogram ]
!1204 = metadata !{i32 786478, i32 0, metadata !62, metadata !"bit", metadata !"bit", metadata !"_ZNK11ap_int_baseILi32ELb0ELb1EE3bitEi", metadata !63, i32 2084, metadata !260, i1 false, i1 false, i32 0, i32 0, null, i32 256, i1 false, null, null, i32 0, metadata !75, i32 2084} ; [ DW_TAG_subprogram ]
!1205 = metadata !{i32 786478, i32 0, metadata !62, metadata !"and_reduce", metadata !"and_reduce", metadata !"_ZN11ap_int_baseILi32ELb0ELb1EE10and_reduceEv", metadata !63, i32 2264, metadata !1206, i1 false, i1 false, i32 0, i32 0, null, i32 256, i1 false, null, null, i32 0, metadata !75, i32 2264} ; [ DW_TAG_subprogram ]
!1206 = metadata !{i32 786453, i32 0, metadata !"", i32 0, i32 0, i64 0, i64 0, i64 0, i32 0, null, metadata !1207, i32 0, i32 0} ; [ DW_TAG_subroutine_type ]
!1207 = metadata !{metadata !81, metadata !85}
!1208 = metadata !{i32 786478, i32 0, metadata !62, metadata !"nand_reduce", metadata !"nand_reduce", metadata !"_ZN11ap_int_baseILi32ELb0ELb1EE11nand_reduceEv", metadata !63, i32 2267, metadata !1206, i1 false, i1 false, i32 0, i32 0, null, i32 256, i1 false, null, null, i32 0, metadata !75, i32 2267} ; [ DW_TAG_subprogram ]
!1209 = metadata !{i32 786478, i32 0, metadata !62, metadata !"or_reduce", metadata !"or_reduce", metadata !"_ZN11ap_int_baseILi32ELb0ELb1EE9or_reduceEv", metadata !63, i32 2270, metadata !1206, i1 false, i1 false, i32 0, i32 0, null, i32 256, i1 false, null, null, i32 0, metadata !75, i32 2270} ; [ DW_TAG_subprogram ]
!1210 = metadata !{i32 786478, i32 0, metadata !62, metadata !"nor_reduce", metadata !"nor_reduce", metadata !"_ZN11ap_int_baseILi32ELb0ELb1EE10nor_reduceEv", metadata !63, i32 2273, metadata !1206, i1 false, i1 false, i32 0, i32 0, null, i32 256, i1 false, null, null, i32 0, metadata !75, i32 2273} ; [ DW_TAG_subprogram ]
!1211 = metadata !{i32 786478, i32 0, metadata !62, metadata !"xor_reduce", metadata !"xor_reduce", metadata !"_ZN11ap_int_baseILi32ELb0ELb1EE10xor_reduceEv", metadata !63, i32 2276, metadata !1206, i1 false, i1 false, i32 0, i32 0, null, i32 256, i1 false, null, null, i32 0, metadata !75, i32 2276} ; [ DW_TAG_subprogram ]
!1212 = metadata !{i32 786478, i32 0, metadata !62, metadata !"xnor_reduce", metadata !"xnor_reduce", metadata !"_ZN11ap_int_baseILi32ELb0ELb1EE11xnor_reduceEv", metadata !63, i32 2279, metadata !1206, i1 false, i1 false, i32 0, i32 0, null, i32 256, i1 false, null, null, i32 0, metadata !75, i32 2279} ; [ DW_TAG_subprogram ]
!1213 = metadata !{i32 786478, i32 0, metadata !62, metadata !"and_reduce", metadata !"and_reduce", metadata !"_ZNK11ap_int_baseILi32ELb0ELb1EE10and_reduceEv", metadata !63, i32 2283, metadata !211, i1 false, i1 false, i32 0, i32 0, null, i32 256, i1 false, null, null, i32 0, metadata !75, i32 2283} ; [ DW_TAG_subprogram ]
!1214 = metadata !{i32 786478, i32 0, metadata !62, metadata !"nand_reduce", metadata !"nand_reduce", metadata !"_ZNK11ap_int_baseILi32ELb0ELb1EE11nand_reduceEv", metadata !63, i32 2286, metadata !211, i1 false, i1 false, i32 0, i32 0, null, i32 256, i1 false, null, null, i32 0, metadata !75, i32 2286} ; [ DW_TAG_subprogram ]
!1215 = metadata !{i32 786478, i32 0, metadata !62, metadata !"or_reduce", metadata !"or_reduce", metadata !"_ZNK11ap_int_baseILi32ELb0ELb1EE9or_reduceEv", metadata !63, i32 2289, metadata !211, i1 false, i1 false, i32 0, i32 0, null, i32 256, i1 false, null, null, i32 0, metadata !75, i32 2289} ; [ DW_TAG_subprogram ]
!1216 = metadata !{i32 786478, i32 0, metadata !62, metadata !"nor_reduce", metadata !"nor_reduce", metadata !"_ZNK11ap_int_baseILi32ELb0ELb1EE10nor_reduceEv", metadata !63, i32 2292, metadata !211, i1 false, i1 false, i32 0, i32 0, null, i32 256, i1 false, null, null, i32 0, metadata !75, i32 2292} ; [ DW_TAG_subprogram ]
!1217 = metadata !{i32 786478, i32 0, metadata !62, metadata !"xor_reduce", metadata !"xor_reduce", metadata !"_ZNK11ap_int_baseILi32ELb0ELb1EE10xor_reduceEv", metadata !63, i32 2295, metadata !211, i1 false, i1 false, i32 0, i32 0, null, i32 256, i1 false, null, null, i32 0, metadata !75, i32 2295} ; [ DW_TAG_subprogram ]
!1218 = metadata !{i32 786478, i32 0, metadata !62, metadata !"xnor_reduce", metadata !"xnor_reduce", metadata !"_ZNK11ap_int_baseILi32ELb0ELb1EE11xnor_reduceEv", metadata !63, i32 2298, metadata !211, i1 false, i1 false, i32 0, i32 0, null, i32 256, i1 false, null, null, i32 0, metadata !75, i32 2298} ; [ DW_TAG_subprogram ]
!1219 = metadata !{i32 786478, i32 0, metadata !62, metadata !"to_string", metadata !"to_string", metadata !"_ZNK11ap_int_baseILi32ELb0ELb1EE9to_stringEPci8BaseModeb", metadata !63, i32 2305, metadata !1220, i1 false, i1 false, i32 0, i32 0, null, i32 256, i1 false, null, null, i32 0, metadata !75, i32 2305} ; [ DW_TAG_subprogram ]
!1220 = metadata !{i32 786453, i32 0, metadata !"", i32 0, i32 0, i64 0, i64 0, i64 0, i32 0, null, metadata !1221, i32 0, i32 0} ; [ DW_TAG_subroutine_type ]
!1221 = metadata !{null, metadata !209, metadata !718, metadata !79, metadata !719, metadata !81}
!1222 = metadata !{i32 786478, i32 0, metadata !62, metadata !"to_string", metadata !"to_string", metadata !"_ZNK11ap_int_baseILi32ELb0ELb1EE9to_stringE8BaseModeb", metadata !63, i32 2332, metadata !1223, i1 false, i1 false, i32 0, i32 0, null, i32 256, i1 false, null, null, i32 0, metadata !75, i32 2332} ; [ DW_TAG_subprogram ]
!1223 = metadata !{i32 786453, i32 0, metadata !"", i32 0, i32 0, i64 0, i64 0, i64 0, i32 0, null, metadata !1224, i32 0, i32 0} ; [ DW_TAG_subroutine_type ]
!1224 = metadata !{metadata !718, metadata !209, metadata !719, metadata !81}
!1225 = metadata !{i32 786478, i32 0, metadata !62, metadata !"to_string", metadata !"to_string", metadata !"_ZNK11ap_int_baseILi32ELb0ELb1EE9to_stringEab", metadata !63, i32 2336, metadata !1226, i1 false, i1 false, i32 0, i32 0, null, i32 256, i1 false, null, null, i32 0, metadata !75, i32 2336} ; [ DW_TAG_subprogram ]
!1226 = metadata !{i32 786453, i32 0, metadata !"", i32 0, i32 0, i64 0, i64 0, i64 0, i32 0, null, metadata !1227, i32 0, i32 0} ; [ DW_TAG_subroutine_type ]
!1227 = metadata !{metadata !718, metadata !209, metadata !92, metadata !81}
!1228 = metadata !{metadata !1192, metadata !80, metadata !733}
!1229 = metadata !{i32 786478, i32 0, metadata !58, metadata !"ap_uint", metadata !"ap_uint", metadata !"", metadata !59, i32 183, metadata !1230, i1 false, i1 false, i32 0, i32 0, null, i32 256, i1 false, null, null, i32 0, metadata !75, i32 183} ; [ DW_TAG_subprogram ]
!1230 = metadata !{i32 786453, i32 0, metadata !"", i32 0, i32 0, i64 0, i64 0, i64 0, i32 0, null, metadata !1231, i32 0, i32 0} ; [ DW_TAG_subroutine_type ]
!1231 = metadata !{null, metadata !1232}
!1232 = metadata !{i32 786447, i32 0, metadata !"", i32 0, i32 0, i64 64, i64 64, i64 0, i32 64, metadata !58} ; [ DW_TAG_pointer_type ]
!1233 = metadata !{i32 786478, i32 0, metadata !58, metadata !"ap_uint", metadata !"ap_uint", metadata !"", metadata !59, i32 245, metadata !1234, i1 false, i1 false, i32 0, i32 0, null, i32 256, i1 false, null, null, i32 0, metadata !75, i32 245} ; [ DW_TAG_subprogram ]
!1234 = metadata !{i32 786453, i32 0, metadata !"", i32 0, i32 0, i64 0, i64 0, i64 0, i32 0, null, metadata !1235, i32 0, i32 0} ; [ DW_TAG_subroutine_type ]
!1235 = metadata !{null, metadata !1232, metadata !81}
!1236 = metadata !{i32 786478, i32 0, metadata !58, metadata !"ap_uint", metadata !"ap_uint", metadata !"", metadata !59, i32 246, metadata !1237, i1 false, i1 false, i32 0, i32 0, null, i32 256, i1 false, null, null, i32 0, metadata !75, i32 246} ; [ DW_TAG_subprogram ]
!1237 = metadata !{i32 786453, i32 0, metadata !"", i32 0, i32 0, i64 0, i64 0, i64 0, i32 0, null, metadata !1238, i32 0, i32 0} ; [ DW_TAG_subroutine_type ]
!1238 = metadata !{null, metadata !1232, metadata !92}
!1239 = metadata !{i32 786478, i32 0, metadata !58, metadata !"ap_uint", metadata !"ap_uint", metadata !"", metadata !59, i32 247, metadata !1240, i1 false, i1 false, i32 0, i32 0, null, i32 256, i1 false, null, null, i32 0, metadata !75, i32 247} ; [ DW_TAG_subprogram ]
!1240 = metadata !{i32 786453, i32 0, metadata !"", i32 0, i32 0, i64 0, i64 0, i64 0, i32 0, null, metadata !1241, i32 0, i32 0} ; [ DW_TAG_subroutine_type ]
!1241 = metadata !{null, metadata !1232, metadata !96}
!1242 = metadata !{i32 786478, i32 0, metadata !58, metadata !"ap_uint", metadata !"ap_uint", metadata !"", metadata !59, i32 248, metadata !1243, i1 false, i1 false, i32 0, i32 0, null, i32 256, i1 false, null, null, i32 0, metadata !75, i32 248} ; [ DW_TAG_subprogram ]
!1243 = metadata !{i32 786453, i32 0, metadata !"", i32 0, i32 0, i64 0, i64 0, i64 0, i32 0, null, metadata !1244, i32 0, i32 0} ; [ DW_TAG_subroutine_type ]
!1244 = metadata !{null, metadata !1232, metadata !100}
!1245 = metadata !{i32 786478, i32 0, metadata !58, metadata !"ap_uint", metadata !"ap_uint", metadata !"", metadata !59, i32 249, metadata !1246, i1 false, i1 false, i32 0, i32 0, null, i32 256, i1 false, null, null, i32 0, metadata !75, i32 249} ; [ DW_TAG_subprogram ]
!1246 = metadata !{i32 786453, i32 0, metadata !"", i32 0, i32 0, i64 0, i64 0, i64 0, i32 0, null, metadata !1247, i32 0, i32 0} ; [ DW_TAG_subroutine_type ]
!1247 = metadata !{null, metadata !1232, metadata !104}
!1248 = metadata !{i32 786478, i32 0, metadata !58, metadata !"ap_uint", metadata !"ap_uint", metadata !"", metadata !59, i32 250, metadata !1249, i1 false, i1 false, i32 0, i32 0, null, i32 256, i1 false, null, null, i32 0, metadata !75, i32 250} ; [ DW_TAG_subprogram ]
!1249 = metadata !{i32 786453, i32 0, metadata !"", i32 0, i32 0, i64 0, i64 0, i64 0, i32 0, null, metadata !1250, i32 0, i32 0} ; [ DW_TAG_subroutine_type ]
!1250 = metadata !{null, metadata !1232, metadata !79}
!1251 = metadata !{i32 786478, i32 0, metadata !58, metadata !"ap_uint", metadata !"ap_uint", metadata !"", metadata !59, i32 251, metadata !1252, i1 false, i1 false, i32 0, i32 0, null, i32 256, i1 false, null, null, i32 0, metadata !75, i32 251} ; [ DW_TAG_subprogram ]
!1252 = metadata !{i32 786453, i32 0, metadata !"", i32 0, i32 0, i64 0, i64 0, i64 0, i32 0, null, metadata !1253, i32 0, i32 0} ; [ DW_TAG_subroutine_type ]
!1253 = metadata !{null, metadata !1232, metadata !111}
!1254 = metadata !{i32 786478, i32 0, metadata !58, metadata !"ap_uint", metadata !"ap_uint", metadata !"", metadata !59, i32 252, metadata !1255, i1 false, i1 false, i32 0, i32 0, null, i32 256, i1 false, null, null, i32 0, metadata !75, i32 252} ; [ DW_TAG_subprogram ]
!1255 = metadata !{i32 786453, i32 0, metadata !"", i32 0, i32 0, i64 0, i64 0, i64 0, i32 0, null, metadata !1256, i32 0, i32 0} ; [ DW_TAG_subroutine_type ]
!1256 = metadata !{null, metadata !1232, metadata !115}
!1257 = metadata !{i32 786478, i32 0, metadata !58, metadata !"ap_uint", metadata !"ap_uint", metadata !"", metadata !59, i32 253, metadata !1258, i1 false, i1 false, i32 0, i32 0, null, i32 256, i1 false, null, null, i32 0, metadata !75, i32 253} ; [ DW_TAG_subprogram ]
!1258 = metadata !{i32 786453, i32 0, metadata !"", i32 0, i32 0, i64 0, i64 0, i64 0, i32 0, null, metadata !1259, i32 0, i32 0} ; [ DW_TAG_subroutine_type ]
!1259 = metadata !{null, metadata !1232, metadata !119}
!1260 = metadata !{i32 786478, i32 0, metadata !58, metadata !"ap_uint", metadata !"ap_uint", metadata !"", metadata !59, i32 254, metadata !1261, i1 false, i1 false, i32 0, i32 0, null, i32 256, i1 false, null, null, i32 0, metadata !75, i32 254} ; [ DW_TAG_subprogram ]
!1261 = metadata !{i32 786453, i32 0, metadata !"", i32 0, i32 0, i64 0, i64 0, i64 0, i32 0, null, metadata !1262, i32 0, i32 0} ; [ DW_TAG_subroutine_type ]
!1262 = metadata !{null, metadata !1232, metadata !129}
!1263 = metadata !{i32 786478, i32 0, metadata !58, metadata !"ap_uint", metadata !"ap_uint", metadata !"", metadata !59, i32 255, metadata !1264, i1 false, i1 false, i32 0, i32 0, null, i32 256, i1 false, null, null, i32 0, metadata !75, i32 255} ; [ DW_TAG_subprogram ]
!1264 = metadata !{i32 786453, i32 0, metadata !"", i32 0, i32 0, i64 0, i64 0, i64 0, i32 0, null, metadata !1265, i32 0, i32 0} ; [ DW_TAG_subroutine_type ]
!1265 = metadata !{null, metadata !1232, metadata !124}
!1266 = metadata !{i32 786478, i32 0, metadata !58, metadata !"ap_uint", metadata !"ap_uint", metadata !"", metadata !59, i32 256, metadata !1267, i1 false, i1 false, i32 0, i32 0, null, i32 256, i1 false, null, null, i32 0, metadata !75, i32 256} ; [ DW_TAG_subprogram ]
!1267 = metadata !{i32 786453, i32 0, metadata !"", i32 0, i32 0, i64 0, i64 0, i64 0, i32 0, null, metadata !1268, i32 0, i32 0} ; [ DW_TAG_subroutine_type ]
!1268 = metadata !{null, metadata !1232, metadata !133}
!1269 = metadata !{i32 786478, i32 0, metadata !58, metadata !"ap_uint", metadata !"ap_uint", metadata !"", metadata !59, i32 257, metadata !1270, i1 false, i1 false, i32 0, i32 0, null, i32 256, i1 false, null, null, i32 0, metadata !75, i32 257} ; [ DW_TAG_subprogram ]
!1270 = metadata !{i32 786453, i32 0, metadata !"", i32 0, i32 0, i64 0, i64 0, i64 0, i32 0, null, metadata !1271, i32 0, i32 0} ; [ DW_TAG_subroutine_type ]
!1271 = metadata !{null, metadata !1232, metadata !137}
!1272 = metadata !{i32 786478, i32 0, metadata !58, metadata !"ap_uint", metadata !"ap_uint", metadata !"", metadata !59, i32 259, metadata !1273, i1 false, i1 false, i32 0, i32 0, null, i32 256, i1 false, null, null, i32 0, metadata !75, i32 259} ; [ DW_TAG_subprogram ]
!1273 = metadata !{i32 786453, i32 0, metadata !"", i32 0, i32 0, i64 0, i64 0, i64 0, i32 0, null, metadata !1274, i32 0, i32 0} ; [ DW_TAG_subroutine_type ]
!1274 = metadata !{null, metadata !1232, metadata !141}
!1275 = metadata !{i32 786478, i32 0, metadata !58, metadata !"ap_uint", metadata !"ap_uint", metadata !"", metadata !59, i32 260, metadata !1276, i1 false, i1 false, i32 0, i32 0, null, i32 256, i1 false, null, null, i32 0, metadata !75, i32 260} ; [ DW_TAG_subprogram ]
!1276 = metadata !{i32 786453, i32 0, metadata !"", i32 0, i32 0, i64 0, i64 0, i64 0, i32 0, null, metadata !1277, i32 0, i32 0} ; [ DW_TAG_subroutine_type ]
!1277 = metadata !{null, metadata !1232, metadata !141, metadata !92}
!1278 = metadata !{i32 786478, i32 0, metadata !58, metadata !"operator=", metadata !"operator=", metadata !"_ZNV7ap_uintILi32EEaSERKS0_", metadata !59, i32 263, metadata !1279, i1 false, i1 false, i32 0, i32 0, null, i32 256, i1 false, null, null, i32 0, metadata !75, i32 263} ; [ DW_TAG_subprogram ]
!1279 = metadata !{i32 786453, i32 0, metadata !"", i32 0, i32 0, i64 0, i64 0, i64 0, i32 0, null, metadata !1280, i32 0, i32 0} ; [ DW_TAG_subroutine_type ]
!1280 = metadata !{null, metadata !1281, metadata !1283}
!1281 = metadata !{i32 786447, i32 0, metadata !"", i32 0, i32 0, i64 64, i64 64, i64 0, i32 64, metadata !1282} ; [ DW_TAG_pointer_type ]
!1282 = metadata !{i32 786485, null, metadata !"", null, i32 0, i64 0, i64 0, i64 0, i32 0, metadata !58} ; [ DW_TAG_volatile_type ]
!1283 = metadata !{i32 786448, null, null, null, i32 0, i64 0, i64 0, i64 0, i32 0, metadata !1284} ; [ DW_TAG_reference_type ]
!1284 = metadata !{i32 786470, null, metadata !"", null, i32 0, i64 0, i64 0, i64 0, i32 0, metadata !58} ; [ DW_TAG_const_type ]
!1285 = metadata !{i32 786478, i32 0, metadata !58, metadata !"operator=", metadata !"operator=", metadata !"_ZNV7ap_uintILi32EEaSERVKS0_", metadata !59, i32 267, metadata !1286, i1 false, i1 false, i32 0, i32 0, null, i32 256, i1 false, null, null, i32 0, metadata !75, i32 267} ; [ DW_TAG_subprogram ]
!1286 = metadata !{i32 786453, i32 0, metadata !"", i32 0, i32 0, i64 0, i64 0, i64 0, i32 0, null, metadata !1287, i32 0, i32 0} ; [ DW_TAG_subroutine_type ]
!1287 = metadata !{null, metadata !1281, metadata !1288}
!1288 = metadata !{i32 786448, null, null, null, i32 0, i64 0, i64 0, i64 0, i32 0, metadata !1289} ; [ DW_TAG_reference_type ]
!1289 = metadata !{i32 786470, null, metadata !"", null, i32 0, i64 0, i64 0, i64 0, i32 0, metadata !1282} ; [ DW_TAG_const_type ]
!1290 = metadata !{i32 786478, i32 0, metadata !58, metadata !"operator=", metadata !"operator=", metadata !"_ZN7ap_uintILi32EEaSERVKS0_", metadata !59, i32 271, metadata !1291, i1 false, i1 false, i32 0, i32 0, null, i32 256, i1 false, null, null, i32 0, metadata !75, i32 271} ; [ DW_TAG_subprogram ]
!1291 = metadata !{i32 786453, i32 0, metadata !"", i32 0, i32 0, i64 0, i64 0, i64 0, i32 0, null, metadata !1292, i32 0, i32 0} ; [ DW_TAG_subroutine_type ]
!1292 = metadata !{metadata !1293, metadata !1232, metadata !1288}
!1293 = metadata !{i32 786448, null, null, null, i32 0, i64 0, i64 0, i64 0, i32 0, metadata !58} ; [ DW_TAG_reference_type ]
!1294 = metadata !{i32 786478, i32 0, metadata !58, metadata !"operator=", metadata !"operator=", metadata !"_ZN7ap_uintILi32EEaSERKS0_", metadata !59, i32 276, metadata !1295, i1 false, i1 false, i32 0, i32 0, null, i32 256, i1 false, null, null, i32 0, metadata !75, i32 276} ; [ DW_TAG_subprogram ]
!1295 = metadata !{i32 786453, i32 0, metadata !"", i32 0, i32 0, i64 0, i64 0, i64 0, i32 0, null, metadata !1296, i32 0, i32 0} ; [ DW_TAG_subroutine_type ]
!1296 = metadata !{metadata !1293, metadata !1232, metadata !1283}
!1297 = metadata !{metadata !1192}
!1298 = metadata !{metadata !1299}
!1299 = metadata !{i32 786465, i64 0, i64 99}     ; [ DW_TAG_subrange_type ]
!1300 = metadata !{i32 786433, null, metadata !"", null, i32 0, i64 320000, i64 32, i32 0, i32 0, metadata !1301, metadata !1307, i32 0, i32 0} ; [ DW_TAG_array_type ]
!1301 = metadata !{i32 786438, null, metadata !"ap_uint<32>", metadata !59, i32 180, i64 32, i64 32, i32 0, i32 0, null, metadata !1302, i32 0, null, metadata !1297} ; [ DW_TAG_class_field_type ]
!1302 = metadata !{metadata !1303}
!1303 = metadata !{i32 786438, null, metadata !"ap_int_base<32, false, true>", metadata !63, i32 1397, i64 32, i64 32, i32 0, i32 0, null, metadata !1304, i32 0, null, metadata !1228} ; [ DW_TAG_class_field_type ]
!1304 = metadata !{metadata !1305}
!1305 = metadata !{i32 786438, null, metadata !"ssdm_int<32 + 1024 * 0, false>", metadata !67, i32 34, i64 32, i64 32, i32 0, i32 0, null, metadata !1306, i32 0, null, metadata !77} ; [ DW_TAG_class_field_type ]
!1306 = metadata !{metadata !69}
!1307 = metadata !{metadata !1299, metadata !1299}
!1308 = metadata !{i32 15, i32 22, metadata !51, null}
!1309 = metadata !{i32 790531, metadata !1310, metadata !"b.V", null, i32 15, metadata !1300, i32 0, i32 0} ; [ DW_TAG_arg_variable_field ]
!1310 = metadata !{i32 786689, metadata !51, metadata !"b", metadata !52, i32 33554447, metadata !55, i32 0, i32 0} ; [ DW_TAG_arg_variable ]
!1311 = metadata !{i32 15, i32 42, metadata !51, null}
!1312 = metadata !{i32 790531, metadata !1313, metadata !"out.V", null, i32 15, metadata !1300, i32 0, i32 0} ; [ DW_TAG_arg_variable_field ]
!1313 = metadata !{i32 786689, metadata !51, metadata !"out", metadata !52, i32 50331663, metadata !55, i32 0, i32 0} ; [ DW_TAG_arg_variable ]
!1314 = metadata !{i32 15, i32 63, metadata !51, null}
!1315 = metadata !{i32 16, i32 18, metadata !1316, null}
!1316 = metadata !{i32 786443, metadata !1317, i32 16, i32 4, metadata !52, i32 1} ; [ DW_TAG_lexical_block ]
!1317 = metadata !{i32 786443, metadata !51, i32 15, i32 77, metadata !52, i32 0} ; [ DW_TAG_lexical_block ]
!1318 = metadata !{i32 16, i32 29, metadata !1316, null}
!1319 = metadata !{i32 786688, metadata !1316, metadata !"i", metadata !52, i32 16, metadata !79, i32 0, i32 0} ; [ DW_TAG_auto_variable ]
!1320 = metadata !{i32 17, i32 23, metadata !1321, null}
!1321 = metadata !{i32 786443, metadata !1322, i32 17, i32 9, metadata !52, i32 3} ; [ DW_TAG_lexical_block ]
!1322 = metadata !{i32 786443, metadata !1316, i32 16, i32 34, metadata !52, i32 2} ; [ DW_TAG_lexical_block ]
!1323 = metadata !{i32 17, i32 34, metadata !1321, null}
!1324 = metadata !{i32 786688, metadata !1321, metadata !"j", metadata !52, i32 17, metadata !79, i32 0, i32 0} ; [ DW_TAG_auto_variable ]
!1325 = metadata !{i32 1822, i32 147, metadata !1326, metadata !1328}
!1326 = metadata !{i32 786443, metadata !1327, i32 1822, i32 143, metadata !63, i32 7} ; [ DW_TAG_lexical_block ]
!1327 = metadata !{i32 786478, i32 0, null, metadata !"operator+=<64, false>", metadata !"operator+=<64, false>", metadata !"_ZN11ap_int_baseILi32ELb0ELb1EEpLILi64ELb0EEERS0_RKS_IXT_EXT0_EXleT_Li64EEE", metadata !63, i32 1822, metadata !275, i1 false, i1 true, i32 0, i32 0, null, i32 256, i1 false, null, metadata !299, metadata !274, metadata !75, i32 1822} ; [ DW_TAG_subprogram ]
!1328 = metadata !{i32 19, i32 30, metadata !1329, null}
!1329 = metadata !{i32 786443, metadata !1330, i32 18, i32 43, metadata !52, i32 6} ; [ DW_TAG_lexical_block ]
!1330 = metadata !{i32 786443, metadata !1331, i32 18, i32 13, metadata !52, i32 5} ; [ DW_TAG_lexical_block ]
!1331 = metadata !{i32 786443, metadata !1321, i32 17, i32 39, metadata !52, i32 4} ; [ DW_TAG_lexical_block ]
!1332 = metadata !{i32 18, i32 27, metadata !1330, null}
!1333 = metadata !{i32 18, i32 38, metadata !1330, null}
!1334 = metadata !{i32 1450, i32 95, metadata !1335, metadata !1341}
!1335 = metadata !{i32 786443, metadata !1336, i32 1450, i32 93, metadata !63, i32 11} ; [ DW_TAG_lexical_block ]
!1336 = metadata !{i32 786478, i32 0, null, metadata !"ap_int_base<32, false>", metadata !"ap_int_base<32, false>", metadata !"_ZN11ap_int_baseILi64ELb0ELb1EEC2ILi32ELb0EEERKS_IXT_EXT0_EXleT_Li64EEE", metadata !63, i32 1450, metadata !1337, i1 false, i1 true, i32 0, i32 0, null, i32 256, i1 false, null, metadata !1339, null, metadata !75, i32 1450} ; [ DW_TAG_subprogram ]
!1337 = metadata !{i32 786453, i32 0, metadata !"", i32 0, i32 0, i64 0, i64 0, i64 0, i32 0, null, metadata !1338, i32 0, i32 0} ; [ DW_TAG_subroutine_type ]
!1338 = metadata !{null, metadata !295, metadata !155}
!1339 = metadata !{metadata !1340, metadata !301}
!1340 = metadata !{i32 786480, null, metadata !"_AP_W2", metadata !79, i64 32, null, i32 0, i32 0} ; [ DW_TAG_template_value_parameter ]
!1341 = metadata !{i32 1450, i32 111, metadata !1342, metadata !1343}
!1342 = metadata !{i32 786478, i32 0, null, metadata !"ap_int_base<32, false>", metadata !"ap_int_base<32, false>", metadata !"_ZN11ap_int_baseILi64ELb0ELb1EEC1ILi32ELb0EEERKS_IXT_EXT0_EXleT_Li64EEE", metadata !63, i32 1450, metadata !1337, i1 false, i1 true, i32 0, i32 0, null, i32 256, i1 false, null, metadata !1339, null, metadata !75, i32 1450} ; [ DW_TAG_subprogram ]
!1343 = metadata !{i32 3365, i32 0, metadata !1344, metadata !1328}
!1344 = metadata !{i32 786443, metadata !1345, i32 3365, i32 256, metadata !63, i32 8} ; [ DW_TAG_lexical_block ]
!1345 = metadata !{i32 786478, i32 0, metadata !63, metadata !"operator*<32, false, 32, false>", metadata !"operator*<32, false, 32, false>", metadata !"_ZmlILi32ELb0ELi32ELb0EEN11ap_int_baseIXT_EXT0_EXleT_Li64EEE5RTypeIXT1_EXT2_EE4multERKS1_RKS0_IXT1_EXT2_EXleT1_Li64EEE", metadata !63, i32 3365, metadata !1346, i1 false, i1 true, i32 0, i32 0, null, i32 256, i1 false, null, metadata !1350, null, metadata !75, i32 3365} ; [ DW_TAG_subprogram ]
